
DMA_double_buff_DAC.elf:     file format elf32-littlearm

Sections:
Idx Name          Size      VMA       LMA       File off  Algn
  0 .isr_vector   000001f8  08000000  08000000  00010000  2**0
                  CONTENTS, ALLOC, LOAD, READONLY, DATA
  1 .text         0000199c  080001f8  080001f8  000101f8  2**2
                  CONTENTS, ALLOC, LOAD, READONLY, CODE
  2 .rodata       00000074  08001b94  08001b94  00011b94  2**1
                  CONTENTS, ALLOC, LOAD, READONLY, DATA
  3 .init_array   00000004  08001c08  08001c08  00011c08  2**2
                  CONTENTS, ALLOC, LOAD, DATA
  4 .fini_array   00000004  08001c0c  08001c0c  00011c0c  2**2
                  CONTENTS, ALLOC, LOAD, DATA
  5 .data         00000004  20000000  08001c10  00020000  2**2
                  CONTENTS, ALLOC, LOAD, DATA
  6 .bss          000000d4  20000004  08001c14  00020004  2**2
                  ALLOC
  7 ._user_heap_stack 00000600  200000d8  08001c14  000200d8  2**0
                  ALLOC
  8 .ARM.attributes 0000002e  00000000  00000000  00020004  2**0
                  CONTENTS, READONLY
  9 .debug_info   000137b5  00000000  00000000  00020032  2**0
                  CONTENTS, READONLY, DEBUGGING
 10 .debug_abbrev 000024fd  00000000  00000000  000337e7  2**0
                  CONTENTS, READONLY, DEBUGGING
 11 .debug_loc    0000601d  00000000  00000000  00035ce4  2**0
                  CONTENTS, READONLY, DEBUGGING
 12 .debug_aranges 00000868  00000000  00000000  0003bd08  2**3
                  CONTENTS, READONLY, DEBUGGING
 13 .debug_ranges 00000b30  00000000  00000000  0003c570  2**3
                  CONTENTS, READONLY, DEBUGGING
 14 .debug_line   00004ed7  00000000  00000000  0003d0a0  2**0
                  CONTENTS, READONLY, DEBUGGING
 15 .debug_str    00003a6c  00000000  00000000  00041f77  2**0
                  CONTENTS, READONLY, DEBUGGING
 16 .comment      0000007c  00000000  00000000  000459e3  2**0
                  CONTENTS, READONLY
 17 .debug_frame  000017a4  00000000  00000000  00045a60  2**2
                  CONTENTS, READONLY, DEBUGGING

Disassembly of section .text:

080001f8 <__do_global_dtors_aux>:
 80001f8:	b510      	push	{r4, lr}
 80001fa:	4c05      	ldr	r4, [pc, #20]	; (8000210 <__do_global_dtors_aux+0x18>)
 80001fc:	7823      	ldrb	r3, [r4, #0]
 80001fe:	b933      	cbnz	r3, 800020e <__do_global_dtors_aux+0x16>
 8000200:	4b04      	ldr	r3, [pc, #16]	; (8000214 <__do_global_dtors_aux+0x1c>)
 8000202:	b113      	cbz	r3, 800020a <__do_global_dtors_aux+0x12>
 8000204:	4804      	ldr	r0, [pc, #16]	; (8000218 <__do_global_dtors_aux+0x20>)
 8000206:	f3af 8000 	nop.w
 800020a:	2301      	movs	r3, #1
 800020c:	7023      	strb	r3, [r4, #0]
 800020e:	bd10      	pop	{r4, pc}
 8000210:	20000004 	.word	0x20000004
 8000214:	00000000 	.word	0x00000000
 8000218:	08001b7c 	.word	0x08001b7c

0800021c <frame_dummy>:
 800021c:	b508      	push	{r3, lr}
 800021e:	4b03      	ldr	r3, [pc, #12]	; (800022c <frame_dummy+0x10>)
 8000220:	b11b      	cbz	r3, 800022a <frame_dummy+0xe>
 8000222:	4903      	ldr	r1, [pc, #12]	; (8000230 <frame_dummy+0x14>)
 8000224:	4803      	ldr	r0, [pc, #12]	; (8000234 <frame_dummy+0x18>)
 8000226:	f3af 8000 	nop.w
 800022a:	bd08      	pop	{r3, pc}
 800022c:	00000000 	.word	0x00000000
 8000230:	20000008 	.word	0x20000008
 8000234:	08001b7c 	.word	0x08001b7c

08000238 <HAL_InitTick>:
  * @retval HAL status
  */
__weak HAL_StatusTypeDef HAL_InitTick(uint32_t TickPriority)
{
  /*Configure the SysTick to have interrupt in 1ms time basis*/
  HAL_SYSTICK_Config(SystemCoreClock/1000);
 8000238:	4b08      	ldr	r3, [pc, #32]	; (800025c <HAL_InitTick+0x24>)
{
 800023a:	b510      	push	{r4, lr}
 800023c:	4604      	mov	r4, r0
  HAL_SYSTICK_Config(SystemCoreClock/1000);
 800023e:	6818      	ldr	r0, [r3, #0]
 8000240:	f44f 737a 	mov.w	r3, #1000	; 0x3e8
 8000244:	fbb0 f0f3 	udiv	r0, r0, r3
 8000248:	f000 f87a 	bl	8000340 <HAL_SYSTICK_Config>

  /*Configure the SysTick IRQ priority */
  HAL_NVIC_SetPriority(SysTick_IRQn, TickPriority ,0);
 800024c:	2200      	movs	r2, #0
 800024e:	4621      	mov	r1, r4
 8000250:	f04f 30ff 	mov.w	r0, #4294967295
 8000254:	f000 f830 	bl	80002b8 <HAL_NVIC_SetPriority>

  /* Return function status */
  return HAL_OK;
}
 8000258:	2000      	movs	r0, #0
 800025a:	bd10      	pop	{r4, pc}
 800025c:	20000000 	.word	0x20000000

08000260 <HAL_Init>:
{
 8000260:	b508      	push	{r3, lr}
  HAL_NVIC_SetPriorityGrouping(NVIC_PRIORITYGROUP_4);
 8000262:	2003      	movs	r0, #3
 8000264:	f000 f816 	bl	8000294 <HAL_NVIC_SetPriorityGrouping>
  HAL_InitTick(TICK_INT_PRIORITY);
 8000268:	2000      	movs	r0, #0
 800026a:	f7ff ffe5 	bl	8000238 <HAL_InitTick>
  HAL_MspInit();
 800026e:	f001 fb60 	bl	8001932 <HAL_MspInit>
}
 8000272:	2000      	movs	r0, #0
 8000274:	bd08      	pop	{r3, pc}
	...

08000278 <HAL_IncTick>:
  *      implementations in user file.
  * @retval None
  */
__weak void HAL_IncTick(void)
{
  uwTick++;
 8000278:	4a02      	ldr	r2, [pc, #8]	; (8000284 <HAL_IncTick+0xc>)
 800027a:	6813      	ldr	r3, [r2, #0]
 800027c:	3301      	adds	r3, #1
 800027e:	6013      	str	r3, [r2, #0]
 8000280:	4770      	bx	lr
 8000282:	bf00      	nop
 8000284:	20000020 	.word	0x20000020

08000288 <HAL_GetTick>:
  *       implementations in user file.
  * @retval tick value
  */
__weak uint32_t HAL_GetTick(void)
{
  return uwTick;
 8000288:	4b01      	ldr	r3, [pc, #4]	; (8000290 <HAL_GetTick+0x8>)
 800028a:	6818      	ldr	r0, [r3, #0]
}
 800028c:	4770      	bx	lr
 800028e:	bf00      	nop
 8000290:	20000020 	.word	0x20000020

08000294 <HAL_NVIC_SetPriorityGrouping>:
__STATIC_INLINE void NVIC_SetPriorityGrouping(uint32_t PriorityGroup)
{
  uint32_t reg_value;
  uint32_t PriorityGroupTmp = (PriorityGroup & (uint32_t)0x07UL);             /* only values 0..7 are used          */

  reg_value  =  SCB->AIRCR;                                                   /* read old register configuration    */
 8000294:	4a07      	ldr	r2, [pc, #28]	; (80002b4 <HAL_NVIC_SetPriorityGrouping+0x20>)
  reg_value &= ~((uint32_t)(SCB_AIRCR_VECTKEY_Msk | SCB_AIRCR_PRIGROUP_Msk)); /* clear bits to change               */
  reg_value  =  (reg_value                                   |
                ((uint32_t)0x5FAUL << SCB_AIRCR_VECTKEY_Pos) |
                (PriorityGroupTmp << 8U)                      );              /* Insert write key and priorty group */
 8000296:	0200      	lsls	r0, r0, #8
  reg_value  =  SCB->AIRCR;                                                   /* read old register configuration    */
 8000298:	68d3      	ldr	r3, [r2, #12]
                (PriorityGroupTmp << 8U)                      );              /* Insert write key and priorty group */
 800029a:	f400 60e0 	and.w	r0, r0, #1792	; 0x700
  reg_value &= ~((uint32_t)(SCB_AIRCR_VECTKEY_Msk | SCB_AIRCR_PRIGROUP_Msk)); /* clear bits to change               */
 800029e:	f423 63e0 	bic.w	r3, r3, #1792	; 0x700
 80002a2:	041b      	lsls	r3, r3, #16
 80002a4:	0c1b      	lsrs	r3, r3, #16
 80002a6:	f043 63bf 	orr.w	r3, r3, #100139008	; 0x5f80000
 80002aa:	f443 3300 	orr.w	r3, r3, #131072	; 0x20000
  reg_value  =  (reg_value                                   |
 80002ae:	4303      	orrs	r3, r0
  SCB->AIRCR =  reg_value;
 80002b0:	60d3      	str	r3, [r2, #12]
 80002b2:	4770      	bx	lr
 80002b4:	e000ed00 	.word	0xe000ed00

080002b8 <HAL_NVIC_SetPriority>:
  \details Reads the priority grouping field from the NVIC Interrupt Controller.
  \return                Priority grouping field (SCB->AIRCR [10:8] PRIGROUP field).
 */
__STATIC_INLINE uint32_t NVIC_GetPriorityGrouping(void)
{
  return ((uint32_t)((SCB->AIRCR & SCB_AIRCR_PRIGROUP_Msk) >> SCB_AIRCR_PRIGROUP_Pos));
 80002b8:	4b19      	ldr	r3, [pc, #100]	; (8000320 <HAL_NVIC_SetPriority+0x68>)
  *         This parameter can be a value between 0 and 15
  *         A lower priority value indicates a higher priority.          
  * @retval None
  */
void HAL_NVIC_SetPriority(IRQn_Type IRQn, uint32_t PreemptPriority, uint32_t SubPriority)
{ 
 80002ba:	b530      	push	{r4, r5, lr}
 80002bc:	68dc      	ldr	r4, [r3, #12]
 80002be:	f3c4 2402 	ubfx	r4, r4, #8, #3
{
  uint32_t PriorityGroupTmp = (PriorityGroup & (uint32_t)0x07UL);   /* only values 0..7 are used          */
  uint32_t PreemptPriorityBits;
  uint32_t SubPriorityBits;

  PreemptPriorityBits = ((7UL - PriorityGroupTmp) > (uint32_t)(__NVIC_PRIO_BITS)) ? (uint32_t)(__NVIC_PRIO_BITS) : (uint32_t)(7UL - PriorityGroupTmp);
 80002c2:	f1c4 0307 	rsb	r3, r4, #7
  SubPriorityBits     = ((PriorityGroupTmp + (uint32_t)(__NVIC_PRIO_BITS)) < (uint32_t)7UL) ? (uint32_t)0UL : (uint32_t)((PriorityGroupTmp - 7UL) + (uint32_t)(__NVIC_PRIO_BITS));
 80002c6:	1d25      	adds	r5, r4, #4
  PreemptPriorityBits = ((7UL - PriorityGroupTmp) > (uint32_t)(__NVIC_PRIO_BITS)) ? (uint32_t)(__NVIC_PRIO_BITS) : (uint32_t)(7UL - PriorityGroupTmp);
 80002c8:	2b04      	cmp	r3, #4
 80002ca:	bf28      	it	cs
 80002cc:	2304      	movcs	r3, #4
  SubPriorityBits     = ((PriorityGroupTmp + (uint32_t)(__NVIC_PRIO_BITS)) < (uint32_t)7UL) ? (uint32_t)0UL : (uint32_t)((PriorityGroupTmp - 7UL) + (uint32_t)(__NVIC_PRIO_BITS));
 80002ce:	2d06      	cmp	r5, #6

  return (
           ((PreemptPriority & (uint32_t)((1UL << (PreemptPriorityBits)) - 1UL)) << SubPriorityBits) |
 80002d0:	f04f 0501 	mov.w	r5, #1
  SubPriorityBits     = ((PriorityGroupTmp + (uint32_t)(__NVIC_PRIO_BITS)) < (uint32_t)7UL) ? (uint32_t)0UL : (uint32_t)((PriorityGroupTmp - 7UL) + (uint32_t)(__NVIC_PRIO_BITS));
 80002d4:	bf8c      	ite	hi
 80002d6:	3c03      	subhi	r4, #3
 80002d8:	2400      	movls	r4, #0
           ((PreemptPriority & (uint32_t)((1UL << (PreemptPriorityBits)) - 1UL)) << SubPriorityBits) |
 80002da:	fa05 f303 	lsl.w	r3, r5, r3
  if ((int32_t)(IRQn) < 0)
 80002de:	2800      	cmp	r0, #0
           ((PreemptPriority & (uint32_t)((1UL << (PreemptPriorityBits)) - 1UL)) << SubPriorityBits) |
 80002e0:	f103 33ff 	add.w	r3, r3, #4294967295
 80002e4:	ea01 0103 	and.w	r1, r1, r3
 80002e8:	fa01 f104 	lsl.w	r1, r1, r4
           ((SubPriority     & (uint32_t)((1UL << (SubPriorityBits    )) - 1UL)))
 80002ec:	fa05 f404 	lsl.w	r4, r5, r4
 80002f0:	f104 34ff 	add.w	r4, r4, #4294967295
 80002f4:	ea02 0204 	and.w	r2, r2, r4
           ((PreemptPriority & (uint32_t)((1UL << (PreemptPriorityBits)) - 1UL)) << SubPriorityBits) |
 80002f8:	ea42 0201 	orr.w	r2, r2, r1
 80002fc:	ea4f 1202 	mov.w	r2, r2, lsl #4
  if ((int32_t)(IRQn) < 0)
 8000300:	da05      	bge.n	800030e <HAL_NVIC_SetPriority+0x56>
    SCB->SHPR[(((uint32_t)(int32_t)IRQn) & 0xFUL)-4UL] = (uint8_t)((priority << (8U - __NVIC_PRIO_BITS)) & (uint32_t)0xFFUL);
 8000302:	f000 000f 	and.w	r0, r0, #15
 8000306:	b2d2      	uxtb	r2, r2
 8000308:	4b06      	ldr	r3, [pc, #24]	; (8000324 <HAL_NVIC_SetPriority+0x6c>)
 800030a:	541a      	strb	r2, [r3, r0]
 800030c:	bd30      	pop	{r4, r5, pc}
    NVIC->IP[((uint32_t)(int32_t)IRQn)]                = (uint8_t)((priority << (8U - __NVIC_PRIO_BITS)) & (uint32_t)0xFFUL);
 800030e:	f100 4060 	add.w	r0, r0, #3758096384	; 0xe0000000
 8000312:	b2d2      	uxtb	r2, r2
 8000314:	f500 4061 	add.w	r0, r0, #57600	; 0xe100
 8000318:	f880 2300 	strb.w	r2, [r0, #768]	; 0x300
 800031c:	bd30      	pop	{r4, r5, pc}
 800031e:	bf00      	nop
 8000320:	e000ed00 	.word	0xe000ed00
 8000324:	e000ed14 	.word	0xe000ed14

08000328 <HAL_NVIC_EnableIRQ>:
  NVIC->ISER[(((uint32_t)(int32_t)IRQn) >> 5UL)] = (uint32_t)(1UL << (((uint32_t)(int32_t)IRQn) & 0x1FUL));
 8000328:	0942      	lsrs	r2, r0, #5
 800032a:	2301      	movs	r3, #1
 800032c:	f000 001f 	and.w	r0, r0, #31
 8000330:	fa03 f000 	lsl.w	r0, r3, r0
 8000334:	4b01      	ldr	r3, [pc, #4]	; (800033c <HAL_NVIC_EnableIRQ+0x14>)
 8000336:	f843 0022 	str.w	r0, [r3, r2, lsl #2]
 800033a:	4770      	bx	lr
 800033c:	e000e100 	.word	0xe000e100

08000340 <HAL_SYSTICK_Config>:
           function <b>SysTick_Config</b> is not included. In this case, the file <b><i>device</i>.h</b>
           must contain a vendor-specific implementation of this function.
 */
__STATIC_INLINE uint32_t SysTick_Config(uint32_t ticks)
{
  if ((ticks - 1UL) > SysTick_LOAD_RELOAD_Msk)
 8000340:	3801      	subs	r0, #1
 8000342:	f1b0 7f80 	cmp.w	r0, #16777216	; 0x1000000
 8000346:	d20a      	bcs.n	800035e <HAL_SYSTICK_Config+0x1e>
  {
    return (1UL);                                                   /* Reload value impossible */
  }

  SysTick->LOAD  = (uint32_t)(ticks - 1UL);                         /* set reload register */
 8000348:	4b06      	ldr	r3, [pc, #24]	; (8000364 <HAL_SYSTICK_Config+0x24>)
    SCB->SHPR[(((uint32_t)(int32_t)IRQn) & 0xFUL)-4UL] = (uint8_t)((priority << (8U - __NVIC_PRIO_BITS)) & (uint32_t)0xFFUL);
 800034a:	21f0      	movs	r1, #240	; 0xf0
 800034c:	4a06      	ldr	r2, [pc, #24]	; (8000368 <HAL_SYSTICK_Config+0x28>)
  SysTick->LOAD  = (uint32_t)(ticks - 1UL);                         /* set reload register */
 800034e:	6058      	str	r0, [r3, #4]
  NVIC_SetPriority (SysTick_IRQn, (1UL << __NVIC_PRIO_BITS) - 1UL); /* set Priority for Systick Interrupt */
  SysTick->VAL   = 0UL;                                             /* Load the SysTick Counter Value */
 8000350:	2000      	movs	r0, #0
    SCB->SHPR[(((uint32_t)(int32_t)IRQn) & 0xFUL)-4UL] = (uint8_t)((priority << (8U - __NVIC_PRIO_BITS)) & (uint32_t)0xFFUL);
 8000352:	f882 1023 	strb.w	r1, [r2, #35]	; 0x23
  SysTick->CTRL  = SysTick_CTRL_CLKSOURCE_Msk |
 8000356:	2207      	movs	r2, #7
  SysTick->VAL   = 0UL;                                             /* Load the SysTick Counter Value */
 8000358:	6098      	str	r0, [r3, #8]
  SysTick->CTRL  = SysTick_CTRL_CLKSOURCE_Msk |
 800035a:	601a      	str	r2, [r3, #0]
 800035c:	4770      	bx	lr
    return (1UL);                                                   /* Reload value impossible */
 800035e:	2001      	movs	r0, #1
  *                  - 1  Function failed.
  */
uint32_t HAL_SYSTICK_Config(uint32_t TicksNumb)
{
   return SysTick_Config(TicksNumb);
}
 8000360:	4770      	bx	lr
 8000362:	bf00      	nop
 8000364:	e000e010 	.word	0xe000e010
 8000368:	e000ed00 	.word	0xe000ed00

0800036c <HAL_SYSTICK_CLKSourceConfig>:
  *             @arg SYSTICK_CLKSOURCE_HCLK_DIV8: AHB clock divided by 8 selected as SysTick clock source.
  *             @arg SYSTICK_CLKSOURCE_HCLK: AHB clock selected as SysTick clock source.
  * @retval None
  */
void HAL_SYSTICK_CLKSourceConfig(uint32_t CLKSource)
{
 800036c:	4b04      	ldr	r3, [pc, #16]	; (8000380 <HAL_SYSTICK_CLKSourceConfig+0x14>)
  /* Check the parameters */
  assert_param(IS_SYSTICK_CLK_SOURCE(CLKSource));
  if (CLKSource == SYSTICK_CLKSOURCE_HCLK)
 800036e:	2804      	cmp	r0, #4
  {
    SysTick->CTRL |= SYSTICK_CLKSOURCE_HCLK;
 8000370:	681a      	ldr	r2, [r3, #0]
 8000372:	bf0c      	ite	eq
 8000374:	f042 0204 	orreq.w	r2, r2, #4
  }
  else
  {
    SysTick->CTRL &= ~SYSTICK_CLKSOURCE_HCLK;
 8000378:	f022 0204 	bicne.w	r2, r2, #4
 800037c:	601a      	str	r2, [r3, #0]
 800037e:	4770      	bx	lr
 8000380:	e000e010 	.word	0xe000e010

08000384 <HAL_SYSTICK_Callback>:
/**
  * @brief  SYSTICK callback.
  * @retval None
  */
__weak void HAL_SYSTICK_Callback(void)
{
 8000384:	4770      	bx	lr

08000386 <HAL_SYSTICK_IRQHandler>:
{
 8000386:	b508      	push	{r3, lr}
  HAL_SYSTICK_Callback();
 8000388:	f7ff fffc 	bl	8000384 <HAL_SYSTICK_Callback>
 800038c:	bd08      	pop	{r3, pc}

0800038e <HAL_DAC_Init>:
  * @param  hdac: pointer to a DAC_HandleTypeDef structure that contains
  *         the configuration information for the specified DAC.
  * @retval HAL status
  */
HAL_StatusTypeDef HAL_DAC_Init(DAC_HandleTypeDef* hdac)
{ 
 800038e:	b510      	push	{r4, lr}
  /* Check DAC handle */
  if(hdac == NULL)
 8000390:	4604      	mov	r4, r0
 8000392:	b168      	cbz	r0, 80003b0 <HAL_DAC_Init+0x22>
     return HAL_ERROR;
  }
  /* Check the parameters */
  assert_param(IS_DAC_ALL_INSTANCE(hdac->Instance));
  
  if(hdac->State == HAL_DAC_STATE_RESET)
 8000394:	7903      	ldrb	r3, [r0, #4]
 8000396:	f003 02ff 	and.w	r2, r3, #255	; 0xff
 800039a:	b913      	cbnz	r3, 80003a2 <HAL_DAC_Init+0x14>
  { 
    /* Allocate lock resource and initialize it */
    hdac->Lock = HAL_UNLOCKED; 
 800039c:	7142      	strb	r2, [r0, #5]
    /* Init the low level hardware */
    HAL_DAC_MspInit(hdac);
 800039e:	f001 faf9 	bl	8001994 <HAL_DAC_MspInit>
  }
  
  /* Initialize the DAC state*/
  hdac->State = HAL_DAC_STATE_BUSY;
 80003a2:	2302      	movs	r3, #2
  
  /* Set DAC error code to none */
  hdac->ErrorCode = HAL_DAC_ERROR_NONE;
 80003a4:	2000      	movs	r0, #0
  hdac->State = HAL_DAC_STATE_BUSY;
 80003a6:	7123      	strb	r3, [r4, #4]
  
  /* Initialize the DAC state*/
  hdac->State = HAL_DAC_STATE_READY;
 80003a8:	2301      	movs	r3, #1
  hdac->ErrorCode = HAL_DAC_ERROR_NONE;
 80003aa:	6120      	str	r0, [r4, #16]
  hdac->State = HAL_DAC_STATE_READY;
 80003ac:	7123      	strb	r3, [r4, #4]
  
  /* Return function status */
  return HAL_OK;
 80003ae:	bd10      	pop	{r4, pc}
     return HAL_ERROR;
 80003b0:	2001      	movs	r0, #1
}
 80003b2:	bd10      	pop	{r4, pc}

080003b4 <HAL_DAC_Start_DMA>:
  *            @arg DAC_ALIGN_12B_L: 12bit left data alignment selected
  *            @arg DAC_ALIGN_12B_R: 12bit right data alignment selected
  * @retval HAL status
  */
HAL_StatusTypeDef HAL_DAC_Start_DMA(DAC_HandleTypeDef* hdac, uint32_t Channel, uint32_t* pData, uint32_t Length, uint32_t Alignment)
{
 80003b4:	b5f8      	push	{r3, r4, r5, r6, r7, lr}
 80003b6:	4605      	mov	r5, r0
  /* Check the parameters */
  assert_param(IS_DAC_CHANNEL(Channel));
  assert_param(IS_DAC_ALIGN(Alignment));
  
  /* Process locked */
  __HAL_LOCK(hdac);
 80003b8:	7940      	ldrb	r0, [r0, #5]
{
 80003ba:	460e      	mov	r6, r1
 80003bc:	4611      	mov	r1, r2
  __HAL_LOCK(hdac);
 80003be:	2801      	cmp	r0, #1
{
 80003c0:	9a06      	ldr	r2, [sp, #24]
 80003c2:	f04f 0002 	mov.w	r0, #2
  __HAL_LOCK(hdac);
 80003c6:	d04c      	beq.n	8000462 <HAL_DAC_Start_DMA+0xae>
 80003c8:	2401      	movs	r4, #1
  
  /* Change DAC state */
  hdac->State = HAL_DAC_STATE_BUSY;
 80003ca:	7128      	strb	r0, [r5, #4]
  __HAL_LOCK(hdac);
 80003cc:	716c      	strb	r4, [r5, #5]
 80003ce:	682c      	ldr	r4, [r5, #0]

  if(Channel == DAC_CHANNEL_1)
 80003d0:	b9e6      	cbnz	r6, 800040c <HAL_DAC_Start_DMA+0x58>
  {
    /* Set the DMA transfer complete callback for channel1 */
    hdac->DMA_Handle1->XferCpltCallback = DAC_DMAConvCpltCh1;
 80003d2:	68a8      	ldr	r0, [r5, #8]

    /* Enable the selected DAC channel1 DMA request */
    hdac->Instance->CR |= DAC_CR_DMAEN1;
    
    /* Case of use of channel 1 */
    switch(Alignment)
 80003d4:	2a04      	cmp	r2, #4
    hdac->DMA_Handle1->XferCpltCallback = DAC_DMAConvCpltCh1;
 80003d6:	4f23      	ldr	r7, [pc, #140]	; (8000464 <HAL_DAC_Start_DMA+0xb0>)
 80003d8:	63c7      	str	r7, [r0, #60]	; 0x3c
    hdac->DMA_Handle1->XferHalfCpltCallback = DAC_DMAHalfConvCpltCh1;
 80003da:	4f23      	ldr	r7, [pc, #140]	; (8000468 <HAL_DAC_Start_DMA+0xb4>)
 80003dc:	6407      	str	r7, [r0, #64]	; 0x40
    hdac->DMA_Handle1->XferErrorCallback = DAC_DMAErrorCh1;
 80003de:	4f23      	ldr	r7, [pc, #140]	; (800046c <HAL_DAC_Start_DMA+0xb8>)
 80003e0:	64c7      	str	r7, [r0, #76]	; 0x4c
    hdac->Instance->CR |= DAC_CR_DMAEN1;
 80003e2:	6827      	ldr	r7, [r4, #0]
 80003e4:	f447 5780 	orr.w	r7, r7, #4096	; 0x1000
 80003e8:	6027      	str	r7, [r4, #0]
    switch(Alignment)
 80003ea:	d009      	beq.n	8000400 <HAL_DAC_Start_DMA+0x4c>
 80003ec:	2a08      	cmp	r2, #8
 80003ee:	d00a      	beq.n	8000406 <HAL_DAC_Start_DMA+0x52>
 80003f0:	2a00      	cmp	r2, #0
 80003f2:	d134      	bne.n	800045e <HAL_DAC_Start_DMA+0xaa>
    {
      case DAC_ALIGN_12B_R:
        /* Get DHR12R1 address */
        tmpreg = (uint32_t)&hdac->Instance->DHR12R1;
 80003f4:	f104 0208 	add.w	r2, r4, #8
  
  /* Enable the DMA Stream */
  if(Channel == DAC_CHANNEL_1)
  {
    /* Enable the DAC DMA underrun interrupt */
    __HAL_DAC_ENABLE_IT(hdac, DAC_IT_DMAUDR1);
 80003f8:	6827      	ldr	r7, [r4, #0]
 80003fa:	f447 5700 	orr.w	r7, r7, #8192	; 0x2000
 80003fe:	e01a      	b.n	8000436 <HAL_DAC_Start_DMA+0x82>
        tmpreg = (uint32_t)&hdac->Instance->DHR12L1;
 8000400:	f104 020c 	add.w	r2, r4, #12
        break;
 8000404:	e7f8      	b.n	80003f8 <HAL_DAC_Start_DMA+0x44>
        tmpreg = (uint32_t)&hdac->Instance->DHR8R1;
 8000406:	f104 0210 	add.w	r2, r4, #16
        break;
 800040a:	e7f5      	b.n	80003f8 <HAL_DAC_Start_DMA+0x44>
    hdac->DMA_Handle2->XferCpltCallback = DAC_DMAConvCpltCh2;
 800040c:	68e8      	ldr	r0, [r5, #12]
    switch(Alignment)
 800040e:	2a04      	cmp	r2, #4
    hdac->DMA_Handle2->XferCpltCallback = DAC_DMAConvCpltCh2;
 8000410:	4f17      	ldr	r7, [pc, #92]	; (8000470 <HAL_DAC_Start_DMA+0xbc>)
 8000412:	63c7      	str	r7, [r0, #60]	; 0x3c
    hdac->DMA_Handle2->XferHalfCpltCallback = DAC_DMAHalfConvCpltCh2;
 8000414:	4f17      	ldr	r7, [pc, #92]	; (8000474 <HAL_DAC_Start_DMA+0xc0>)
 8000416:	6407      	str	r7, [r0, #64]	; 0x40
    hdac->DMA_Handle2->XferErrorCallback = DAC_DMAErrorCh2;
 8000418:	4f17      	ldr	r7, [pc, #92]	; (8000478 <HAL_DAC_Start_DMA+0xc4>)
 800041a:	64c7      	str	r7, [r0, #76]	; 0x4c
    hdac->Instance->CR |= DAC_CR_DMAEN2;
 800041c:	6827      	ldr	r7, [r4, #0]
 800041e:	f047 5780 	orr.w	r7, r7, #268435456	; 0x10000000
 8000422:	6027      	str	r7, [r4, #0]
    switch(Alignment)
 8000424:	d013      	beq.n	800044e <HAL_DAC_Start_DMA+0x9a>
 8000426:	2a08      	cmp	r2, #8
 8000428:	d014      	beq.n	8000454 <HAL_DAC_Start_DMA+0xa0>
 800042a:	b9b2      	cbnz	r2, 800045a <HAL_DAC_Start_DMA+0xa6>
        tmpreg = (uint32_t)&hdac->Instance->DHR12R2;
 800042c:	f104 0214 	add.w	r2, r4, #20
    HAL_DMA_Start_IT(hdac->DMA_Handle1, (uint32_t)pData, tmpreg, Length);
  } 
  else
  {
    /* Enable the DAC DMA underrun interrupt */
    __HAL_DAC_ENABLE_IT(hdac, DAC_IT_DMAUDR2);
 8000430:	6827      	ldr	r7, [r4, #0]
 8000432:	f047 5700 	orr.w	r7, r7, #536870912	; 0x20000000
    __HAL_DAC_ENABLE_IT(hdac, DAC_IT_DMAUDR1);
 8000436:	6027      	str	r7, [r4, #0]
    HAL_DMA_Start_IT(hdac->DMA_Handle1, (uint32_t)pData, tmpreg, Length);
 8000438:	f000 f93a 	bl	80006b0 <HAL_DMA_Start_IT>
    /* Enable the DMA Stream */
    HAL_DMA_Start_IT(hdac->DMA_Handle2, (uint32_t)pData, tmpreg, Length);
  }
  
  /* Enable the Peripheral */
  __HAL_DAC_ENABLE(hdac, Channel);
 800043c:	682b      	ldr	r3, [r5, #0]
 800043e:	2101      	movs	r1, #1
  
  /* Process Unlocked */
  __HAL_UNLOCK(hdac);
 8000440:	2000      	movs	r0, #0
  __HAL_DAC_ENABLE(hdac, Channel);
 8000442:	681a      	ldr	r2, [r3, #0]
 8000444:	40b1      	lsls	r1, r6
 8000446:	4311      	orrs	r1, r2
 8000448:	6019      	str	r1, [r3, #0]
  __HAL_UNLOCK(hdac);
 800044a:	7168      	strb	r0, [r5, #5]
  
  /* Return function status */
  return HAL_OK;
 800044c:	bdf8      	pop	{r3, r4, r5, r6, r7, pc}
        tmpreg = (uint32_t)&hdac->Instance->DHR12L2;
 800044e:	f104 0218 	add.w	r2, r4, #24
        break;
 8000452:	e7ed      	b.n	8000430 <HAL_DAC_Start_DMA+0x7c>
        tmpreg = (uint32_t)&hdac->Instance->DHR8R2;
 8000454:	f104 021c 	add.w	r2, r4, #28
        break;
 8000458:	e7ea      	b.n	8000430 <HAL_DAC_Start_DMA+0x7c>
  uint32_t tmpreg = 0;
 800045a:	2200      	movs	r2, #0
 800045c:	e7e8      	b.n	8000430 <HAL_DAC_Start_DMA+0x7c>
 800045e:	4632      	mov	r2, r6
 8000460:	e7ca      	b.n	80003f8 <HAL_DAC_Start_DMA+0x44>
}
 8000462:	bdf8      	pop	{r3, r4, r5, r6, r7, pc}
 8000464:	0800047d 	.word	0x0800047d
 8000468:	0800048f 	.word	0x0800048f
 800046c:	0800049b 	.word	0x0800049b
 8000470:	08000555 	.word	0x08000555
 8000474:	08000565 	.word	0x08000565
 8000478:	0800056f 	.word	0x0800056f

0800047c <DAC_DMAConvCpltCh1>:
  * @param  hdma: pointer to a DMA_HandleTypeDef structure that contains
  *                the configuration information for the specified DMA module.
  * @retval None
  */
static void DAC_DMAConvCpltCh1(DMA_HandleTypeDef *hdma)   
{
 800047c:	b510      	push	{r4, lr}
  DAC_HandleTypeDef* hdac = ( DAC_HandleTypeDef* )((DMA_HandleTypeDef* )hdma)->Parent;
 800047e:	6b84      	ldr	r4, [r0, #56]	; 0x38
  
  HAL_DAC_ConvCpltCallbackCh1(hdac); 
 8000480:	4620      	mov	r0, r4
 8000482:	f001 fa4f 	bl	8001924 <HAL_DAC_ConvCpltCallbackCh1>
  
  hdac->State= HAL_DAC_STATE_READY;
 8000486:	2301      	movs	r3, #1
 8000488:	7123      	strb	r3, [r4, #4]
 800048a:	bd10      	pop	{r4, pc}

0800048c <HAL_DAC_ConvHalfCpltCallbackCh1>:
 800048c:	4770      	bx	lr

0800048e <DAC_DMAHalfConvCpltCh1>:
  * @param  hdma: pointer to a DMA_HandleTypeDef structure that contains
  *                the configuration information for the specified DMA module.
  * @retval None
  */
static void DAC_DMAHalfConvCpltCh1(DMA_HandleTypeDef *hdma)   
{
 800048e:	b508      	push	{r3, lr}
    DAC_HandleTypeDef* hdac = ( DAC_HandleTypeDef* )((DMA_HandleTypeDef* )hdma)->Parent;
    /* Conversion complete callback */
    HAL_DAC_ConvHalfCpltCallbackCh1(hdac); 
 8000490:	6b80      	ldr	r0, [r0, #56]	; 0x38
 8000492:	f7ff fffb 	bl	800048c <HAL_DAC_ConvHalfCpltCallbackCh1>
 8000496:	bd08      	pop	{r3, pc}

08000498 <HAL_DAC_ErrorCallbackCh1>:
 8000498:	4770      	bx	lr

0800049a <DAC_DMAErrorCh1>:
  * @param  hdma: pointer to a DMA_HandleTypeDef structure that contains
  *                the configuration information for the specified DMA module.
  * @retval None
  */
static void DAC_DMAErrorCh1(DMA_HandleTypeDef *hdma)   
{
 800049a:	b510      	push	{r4, lr}
  DAC_HandleTypeDef* hdac = ( DAC_HandleTypeDef* )((DMA_HandleTypeDef* )hdma)->Parent;
 800049c:	6b84      	ldr	r4, [r0, #56]	; 0x38
    
  /* Set DAC error code to DMA error */
  hdac->ErrorCode |= HAL_DAC_ERROR_DMA;
 800049e:	6923      	ldr	r3, [r4, #16]
    
  HAL_DAC_ErrorCallbackCh1(hdac); 
 80004a0:	4620      	mov	r0, r4
  hdac->ErrorCode |= HAL_DAC_ERROR_DMA;
 80004a2:	f043 0304 	orr.w	r3, r3, #4
 80004a6:	6123      	str	r3, [r4, #16]
  HAL_DAC_ErrorCallbackCh1(hdac); 
 80004a8:	f7ff fff6 	bl	8000498 <HAL_DAC_ErrorCallbackCh1>
    
  hdac->State= HAL_DAC_STATE_READY;
 80004ac:	2301      	movs	r3, #1
 80004ae:	7123      	strb	r3, [r4, #4]
 80004b0:	bd10      	pop	{r4, pc}

080004b2 <HAL_DAC_DMAUnderrunCallbackCh1>:
{
 80004b2:	4770      	bx	lr

080004b4 <HAL_DAC_IRQHandler>:
  if(__HAL_DAC_GET_FLAG(hdac, DAC_FLAG_DMAUDR1))
 80004b4:	6803      	ldr	r3, [r0, #0]
 80004b6:	6b5a      	ldr	r2, [r3, #52]	; 0x34
 80004b8:	0491      	lsls	r1, r2, #18
{
 80004ba:	b510      	push	{r4, lr}
 80004bc:	4604      	mov	r4, r0
  if(__HAL_DAC_GET_FLAG(hdac, DAC_FLAG_DMAUDR1))
 80004be:	d50e      	bpl.n	80004de <HAL_DAC_IRQHandler+0x2a>
    hdac->State = HAL_DAC_STATE_ERROR;
 80004c0:	2204      	movs	r2, #4
 80004c2:	7102      	strb	r2, [r0, #4]
    hdac->ErrorCode |= HAL_DAC_ERROR_DMAUNDERRUNCH1;
 80004c4:	6902      	ldr	r2, [r0, #16]
 80004c6:	f042 0201 	orr.w	r2, r2, #1
 80004ca:	6102      	str	r2, [r0, #16]
    __HAL_DAC_CLEAR_FLAG(hdac,DAC_FLAG_DMAUDR1);
 80004cc:	f44f 5200 	mov.w	r2, #8192	; 0x2000
 80004d0:	635a      	str	r2, [r3, #52]	; 0x34
    hdac->Instance->CR &= ~DAC_CR_DMAEN1;
 80004d2:	681a      	ldr	r2, [r3, #0]
 80004d4:	f422 5280 	bic.w	r2, r2, #4096	; 0x1000
 80004d8:	601a      	str	r2, [r3, #0]
    HAL_DAC_DMAUnderrunCallbackCh1(hdac);
 80004da:	f7ff ffea 	bl	80004b2 <HAL_DAC_DMAUnderrunCallbackCh1>
  if(__HAL_DAC_GET_FLAG(hdac, DAC_FLAG_DMAUDR2))
 80004de:	6823      	ldr	r3, [r4, #0]
 80004e0:	6b5a      	ldr	r2, [r3, #52]	; 0x34
 80004e2:	0092      	lsls	r2, r2, #2
 80004e4:	d511      	bpl.n	800050a <HAL_DAC_IRQHandler+0x56>
    hdac->State = HAL_DAC_STATE_ERROR;
 80004e6:	2204      	movs	r2, #4
    HAL_DACEx_DMAUnderrunCallbackCh2(hdac);
 80004e8:	4620      	mov	r0, r4
    hdac->State = HAL_DAC_STATE_ERROR;
 80004ea:	7122      	strb	r2, [r4, #4]
    hdac->ErrorCode |= HAL_DAC_ERROR_DMAUNDERRUNCH2;
 80004ec:	6922      	ldr	r2, [r4, #16]
 80004ee:	f042 0202 	orr.w	r2, r2, #2
 80004f2:	6122      	str	r2, [r4, #16]
    __HAL_DAC_CLEAR_FLAG(hdac,DAC_FLAG_DMAUDR2);
 80004f4:	f04f 5200 	mov.w	r2, #536870912	; 0x20000000
 80004f8:	635a      	str	r2, [r3, #52]	; 0x34
    hdac->Instance->CR &= ~DAC_CR_DMAEN2;
 80004fa:	681a      	ldr	r2, [r3, #0]
 80004fc:	f022 5280 	bic.w	r2, r2, #268435456	; 0x10000000
}
 8000500:	e8bd 4010 	ldmia.w	sp!, {r4, lr}
    hdac->Instance->CR &= ~DAC_CR_DMAEN2;
 8000504:	601a      	str	r2, [r3, #0]
    HAL_DACEx_DMAUnderrunCallbackCh2(hdac);
 8000506:	f000 b824 	b.w	8000552 <HAL_DACEx_DMAUnderrunCallbackCh2>
 800050a:	bd10      	pop	{r4, pc}

0800050c <HAL_DAC_ConfigChannel>:
  __HAL_LOCK(hdac);
 800050c:	7943      	ldrb	r3, [r0, #5]
 800050e:	2b01      	cmp	r3, #1
 8000510:	f04f 0302 	mov.w	r3, #2
{
 8000514:	b530      	push	{r4, r5, lr}
  __HAL_LOCK(hdac);
 8000516:	d017      	beq.n	8000548 <HAL_DAC_ConfigChannel+0x3c>
  tmpreg1 = hdac->Instance->CR;
 8000518:	6804      	ldr	r4, [r0, #0]
  tmpreg1 &= ~(((uint32_t)(DAC_CR_MAMP1 | DAC_CR_WAVE1 | DAC_CR_TSEL1 | DAC_CR_TEN1 | DAC_CR_BOFF1)) << Channel);
 800051a:	f640 75fe 	movw	r5, #4094	; 0xffe
  hdac->State = HAL_DAC_STATE_BUSY;
 800051e:	7103      	strb	r3, [r0, #4]
  tmpreg1 &= ~(((uint32_t)(DAC_CR_MAMP1 | DAC_CR_WAVE1 | DAC_CR_TSEL1 | DAC_CR_TEN1 | DAC_CR_BOFF1)) << Channel);
 8000520:	4095      	lsls	r5, r2
  tmpreg1 = hdac->Instance->CR;
 8000522:	6823      	ldr	r3, [r4, #0]
  tmpreg1 &= ~(((uint32_t)(DAC_CR_MAMP1 | DAC_CR_WAVE1 | DAC_CR_TSEL1 | DAC_CR_TEN1 | DAC_CR_BOFF1)) << Channel);
 8000524:	ea23 0505 	bic.w	r5, r3, r5
  tmpreg2 = (sConfig->DAC_Trigger | sConfig->DAC_OutputBuffer);
 8000528:	c90a      	ldmia	r1, {r1, r3}
 800052a:	430b      	orrs	r3, r1
  hdac->Instance->CR &= ~(DAC_CR_WAVE1 << Channel);
 800052c:	21c0      	movs	r1, #192	; 0xc0
  tmpreg1 |= tmpreg2 << Channel;
 800052e:	4093      	lsls	r3, r2
  hdac->Instance->CR &= ~(DAC_CR_WAVE1 << Channel);
 8000530:	fa01 f202 	lsl.w	r2, r1, r2
  tmpreg1 |= tmpreg2 << Channel;
 8000534:	432b      	orrs	r3, r5
  hdac->Instance->CR = tmpreg1;
 8000536:	6023      	str	r3, [r4, #0]
  hdac->Instance->CR &= ~(DAC_CR_WAVE1 << Channel);
 8000538:	6823      	ldr	r3, [r4, #0]
 800053a:	ea23 0202 	bic.w	r2, r3, r2
  hdac->State = HAL_DAC_STATE_READY;
 800053e:	2301      	movs	r3, #1
  hdac->Instance->CR &= ~(DAC_CR_WAVE1 << Channel);
 8000540:	6022      	str	r2, [r4, #0]
  hdac->State = HAL_DAC_STATE_READY;
 8000542:	7103      	strb	r3, [r0, #4]
  __HAL_UNLOCK(hdac);
 8000544:	2300      	movs	r3, #0
 8000546:	7143      	strb	r3, [r0, #5]
  __HAL_LOCK(hdac);
 8000548:	4618      	mov	r0, r3
}
 800054a:	bd30      	pop	{r4, r5, pc}

0800054c <HAL_DACEx_ConvCpltCallbackCh2>:
 800054c:	4770      	bx	lr

0800054e <HAL_DACEx_ConvHalfCpltCallbackCh2>:
 800054e:	4770      	bx	lr

08000550 <HAL_DACEx_ErrorCallbackCh2>:
 8000550:	4770      	bx	lr

08000552 <HAL_DACEx_DMAUnderrunCallbackCh2>:
  * @param  hdac: pointer to a DAC_HandleTypeDef structure that contains
  *         the configuration information for the specified DAC.
  * @retval None
  */
__weak void HAL_DACEx_DMAUnderrunCallbackCh2(DAC_HandleTypeDef *hdac)
{
 8000552:	4770      	bx	lr

08000554 <DAC_DMAConvCpltCh2>:
  * @param  hdma: pointer to a DMA_HandleTypeDef structure that contains
  *                the configuration information for the specified DMA module.
  * @retval None
  */
void DAC_DMAConvCpltCh2(DMA_HandleTypeDef *hdma)   
{
 8000554:	b510      	push	{r4, lr}
  DAC_HandleTypeDef* hdac = ( DAC_HandleTypeDef* )((DMA_HandleTypeDef* )hdma)->Parent;
 8000556:	6b84      	ldr	r4, [r0, #56]	; 0x38
  
  HAL_DACEx_ConvCpltCallbackCh2(hdac); 
 8000558:	4620      	mov	r0, r4
 800055a:	f7ff fff7 	bl	800054c <HAL_DACEx_ConvCpltCallbackCh2>
  
  hdac->State= HAL_DAC_STATE_READY;
 800055e:	2301      	movs	r3, #1
 8000560:	7123      	strb	r3, [r4, #4]
 8000562:	bd10      	pop	{r4, pc}

08000564 <DAC_DMAHalfConvCpltCh2>:
  * @param  hdma: pointer to a DMA_HandleTypeDef structure that contains
  *                the configuration information for the specified DMA module.
  * @retval None
  */
void DAC_DMAHalfConvCpltCh2(DMA_HandleTypeDef *hdma)   
{
 8000564:	b508      	push	{r3, lr}
    DAC_HandleTypeDef* hdac = ( DAC_HandleTypeDef* )((DMA_HandleTypeDef* )hdma)->Parent;
    /* Conversion complete callback */
    HAL_DACEx_ConvHalfCpltCallbackCh2(hdac); 
 8000566:	6b80      	ldr	r0, [r0, #56]	; 0x38
 8000568:	f7ff fff1 	bl	800054e <HAL_DACEx_ConvHalfCpltCallbackCh2>
 800056c:	bd08      	pop	{r3, pc}

0800056e <DAC_DMAErrorCh2>:
  * @param  hdma: pointer to a DMA_HandleTypeDef structure that contains
  *                the configuration information for the specified DMA module.
  * @retval None
  */
void DAC_DMAErrorCh2(DMA_HandleTypeDef *hdma)   
{
 800056e:	b510      	push	{r4, lr}
  DAC_HandleTypeDef* hdac = ( DAC_HandleTypeDef* )((DMA_HandleTypeDef* )hdma)->Parent;
 8000570:	6b84      	ldr	r4, [r0, #56]	; 0x38
    
  /* Set DAC error code to DMA error */
  hdac->ErrorCode |= HAL_DAC_ERROR_DMA;
 8000572:	6923      	ldr	r3, [r4, #16]
    
  HAL_DACEx_ErrorCallbackCh2(hdac); 
 8000574:	4620      	mov	r0, r4
  hdac->ErrorCode |= HAL_DAC_ERROR_DMA;
 8000576:	f043 0304 	orr.w	r3, r3, #4
 800057a:	6123      	str	r3, [r4, #16]
  HAL_DACEx_ErrorCallbackCh2(hdac); 
 800057c:	f7ff ffe8 	bl	8000550 <HAL_DACEx_ErrorCallbackCh2>
    
  hdac->State= HAL_DAC_STATE_READY;
 8000580:	2301      	movs	r3, #1
 8000582:	7123      	strb	r3, [r4, #4]
 8000584:	bd10      	pop	{r4, pc}
	...

08000588 <DMA_CalcBaseAndBitshift>:
  *                     the configuration information for the specified DMA Stream. 
  * @retval Stream base address
  */
static uint32_t DMA_CalcBaseAndBitshift(DMA_HandleTypeDef *hdma)
{
  uint32_t stream_number = (((uint32_t)hdma->Instance & 0xFFU) - 16U) / 24U;
 8000588:	6803      	ldr	r3, [r0, #0]
 800058a:	2118      	movs	r1, #24
 800058c:	b2da      	uxtb	r2, r3
 800058e:	f423 737f 	bic.w	r3, r3, #1020	; 0x3fc
 8000592:	3a10      	subs	r2, #16
 8000594:	f023 0303 	bic.w	r3, r3, #3
 8000598:	fbb2 f2f1 	udiv	r2, r2, r1
  
  /* lookup table for necessary bitshift of flags within status registers */
  static const uint8_t flagBitshiftOffset[8U] = {0U, 6U, 16U, 22U, 0U, 6U, 16U, 22U};
  hdma->StreamIndex = flagBitshiftOffset[stream_number];
 800059c:	4904      	ldr	r1, [pc, #16]	; (80005b0 <DMA_CalcBaseAndBitshift+0x28>)
  
  if (stream_number > 3U)
 800059e:	2a03      	cmp	r2, #3
  hdma->StreamIndex = flagBitshiftOffset[stream_number];
 80005a0:	5c89      	ldrb	r1, [r1, r2]
  {
    /* return pointer to HISR and HIFCR */
    hdma->StreamBaseAddress = (((uint32_t)hdma->Instance & (uint32_t)(~0x3FFU)) + 4U);
 80005a2:	bf88      	it	hi
 80005a4:	3304      	addhi	r3, #4
  hdma->StreamIndex = flagBitshiftOffset[stream_number];
 80005a6:	65c1      	str	r1, [r0, #92]	; 0x5c
  }
  else
  {
    /* return pointer to LISR and LIFCR */
    hdma->StreamBaseAddress = ((uint32_t)hdma->Instance & (uint32_t)(~0x3FFU));
 80005a8:	6583      	str	r3, [r0, #88]	; 0x58
  }
  
  return hdma->StreamBaseAddress;
}
 80005aa:	6d80      	ldr	r0, [r0, #88]	; 0x58
 80005ac:	4770      	bx	lr
 80005ae:	bf00      	nop
 80005b0:	08001b94 	.word	0x08001b94

080005b4 <HAL_DMA_Init>:
{
 80005b4:	b570      	push	{r4, r5, r6, lr}
 80005b6:	4604      	mov	r4, r0
  uint32_t tickstart = HAL_GetTick();
 80005b8:	f7ff fe66 	bl	8000288 <HAL_GetTick>
 80005bc:	4605      	mov	r5, r0
  if(hdma == NULL)
 80005be:	2c00      	cmp	r4, #0
 80005c0:	d071      	beq.n	80006a6 <HAL_DMA_Init+0xf2>
  __HAL_UNLOCK(hdma);
 80005c2:	2300      	movs	r3, #0
  __HAL_DMA_DISABLE(hdma);
 80005c4:	6822      	ldr	r2, [r4, #0]
  __HAL_UNLOCK(hdma);
 80005c6:	f884 3034 	strb.w	r3, [r4, #52]	; 0x34
  hdma->State = HAL_DMA_STATE_BUSY;
 80005ca:	2302      	movs	r3, #2
 80005cc:	f884 3035 	strb.w	r3, [r4, #53]	; 0x35
  __HAL_DMA_DISABLE(hdma);
 80005d0:	6813      	ldr	r3, [r2, #0]
 80005d2:	f023 0301 	bic.w	r3, r3, #1
 80005d6:	6013      	str	r3, [r2, #0]
  while((hdma->Instance->CR & DMA_SxCR_EN) != RESET)
 80005d8:	6821      	ldr	r1, [r4, #0]
 80005da:	680b      	ldr	r3, [r1, #0]
 80005dc:	07d8      	lsls	r0, r3, #31
 80005de:	d43c      	bmi.n	800065a <HAL_DMA_Init+0xa6>
  tmp = hdma->Instance->CR;
 80005e0:	680b      	ldr	r3, [r1, #0]
  tmp &= ((uint32_t)~(DMA_SxCR_CHSEL | DMA_SxCR_MBURST | DMA_SxCR_PBURST | \
 80005e2:	4d32      	ldr	r5, [pc, #200]	; (80006ac <HAL_DMA_Init+0xf8>)
  tmp |=  hdma->Init.Channel             | hdma->Init.Direction        |
 80005e4:	6862      	ldr	r2, [r4, #4]
  tmp &= ((uint32_t)~(DMA_SxCR_CHSEL | DMA_SxCR_MBURST | DMA_SxCR_PBURST | \
 80005e6:	401d      	ands	r5, r3
  tmp |=  hdma->Init.Channel             | hdma->Init.Direction        |
 80005e8:	68a3      	ldr	r3, [r4, #8]
          hdma->Init.PeriphDataAlignment | hdma->Init.MemDataAlignment |
 80005ea:	69a0      	ldr	r0, [r4, #24]
  tmp |=  hdma->Init.Channel             | hdma->Init.Direction        |
 80005ec:	4313      	orrs	r3, r2
 80005ee:	68e2      	ldr	r2, [r4, #12]
 80005f0:	4313      	orrs	r3, r2
          hdma->Init.PeriphInc           | hdma->Init.MemInc           |
 80005f2:	6922      	ldr	r2, [r4, #16]
 80005f4:	4313      	orrs	r3, r2
 80005f6:	6962      	ldr	r2, [r4, #20]
 80005f8:	4313      	orrs	r3, r2
          hdma->Init.PeriphDataAlignment | hdma->Init.MemDataAlignment |
 80005fa:	69e2      	ldr	r2, [r4, #28]
 80005fc:	4303      	orrs	r3, r0
 80005fe:	4313      	orrs	r3, r2
          hdma->Init.Mode                | hdma->Init.Priority;
 8000600:	6a22      	ldr	r2, [r4, #32]
 8000602:	4313      	orrs	r3, r2
  if(hdma->Init.FIFOMode == DMA_FIFOMODE_ENABLE)
 8000604:	6a62      	ldr	r2, [r4, #36]	; 0x24
 8000606:	2a04      	cmp	r2, #4
  tmp |=  hdma->Init.Channel             | hdma->Init.Direction        |
 8000608:	ea43 0305 	orr.w	r3, r3, r5
    tmp |=  hdma->Init.MemBurst | hdma->Init.PeriphBurst;
 800060c:	bf01      	itttt	eq
 800060e:	6b26      	ldreq	r6, [r4, #48]	; 0x30
 8000610:	6ae5      	ldreq	r5, [r4, #44]	; 0x2c
 8000612:	4335      	orreq	r5, r6
 8000614:	432b      	orreq	r3, r5
  if(hdma->Init.FIFOMode == DMA_FIFOMODE_ENABLE)
 8000616:	2a04      	cmp	r2, #4
  hdma->Instance->CR = tmp;  
 8000618:	600b      	str	r3, [r1, #0]
  tmp = hdma->Instance->FCR;
 800061a:	694b      	ldr	r3, [r1, #20]
  tmp &= (uint32_t)~(DMA_SxFCR_DMDIS | DMA_SxFCR_FTH);
 800061c:	f023 0307 	bic.w	r3, r3, #7
  tmp |= hdma->Init.FIFOMode;
 8000620:	ea43 0302 	orr.w	r3, r3, r2
  if(hdma->Init.FIFOMode == DMA_FIFOMODE_ENABLE)
 8000624:	d10b      	bne.n	800063e <HAL_DMA_Init+0x8a>
    tmp |= hdma->Init.FIFOThreshold;
 8000626:	6aa2      	ldr	r2, [r4, #40]	; 0x28
    if (hdma->Init.MemBurst != DMA_MBURST_SINGLE)
 8000628:	6ae5      	ldr	r5, [r4, #44]	; 0x2c
    tmp |= hdma->Init.FIFOThreshold;
 800062a:	4313      	orrs	r3, r2
    if (hdma->Init.MemBurst != DMA_MBURST_SINGLE)
 800062c:	b13d      	cbz	r5, 800063e <HAL_DMA_Init+0x8a>
{
  HAL_StatusTypeDef status = HAL_OK;
  uint32_t tmp = hdma->Init.FIFOThreshold;
  
  /* Memory Data size equal to Byte */
  if(hdma->Init.MemDataAlignment == DMA_MDATAALIGN_BYTE)
 800062e:	b9f8      	cbnz	r0, 8000670 <HAL_DMA_Init+0xbc>
  {
    switch (tmp)
 8000630:	2a01      	cmp	r2, #1
 8000632:	d02d      	beq.n	8000690 <HAL_DMA_Init+0xdc>
 8000634:	d301      	bcc.n	800063a <HAL_DMA_Init+0x86>
 8000636:	2a02      	cmp	r2, #2
  }
  
  /* Memory Data size equal to Word */
  else
  {
    switch (tmp)
 8000638:	d101      	bne.n	800063e <HAL_DMA_Init+0x8a>
    case DMA_FIFO_THRESHOLD_HALFFULL:
    case DMA_FIFO_THRESHOLD_3QUARTERSFULL:
      status = HAL_ERROR;
      break;
    case DMA_FIFO_THRESHOLD_FULL:
      if ((hdma->Init.MemBurst & DMA_SxCR_MBURST_1) == DMA_SxCR_MBURST_1)
 800063a:	01ea      	lsls	r2, r5, #7
 800063c:	d42b      	bmi.n	8000696 <HAL_DMA_Init+0xe2>
  hdma->Instance->FCR = tmp;
 800063e:	614b      	str	r3, [r1, #20]
  regs = (DMA_Base_Registers *)DMA_CalcBaseAndBitshift(hdma);
 8000640:	4620      	mov	r0, r4
 8000642:	f7ff ffa1 	bl	8000588 <DMA_CalcBaseAndBitshift>
  regs->IFCR = 0x3FU << hdma->StreamIndex;
 8000646:	6de2      	ldr	r2, [r4, #92]	; 0x5c
 8000648:	233f      	movs	r3, #63	; 0x3f
 800064a:	4093      	lsls	r3, r2
 800064c:	6083      	str	r3, [r0, #8]
  hdma->ErrorCode = HAL_DMA_ERROR_NONE;
 800064e:	2000      	movs	r0, #0
  hdma->State = HAL_DMA_STATE_READY;
 8000650:	2301      	movs	r3, #1
  hdma->ErrorCode = HAL_DMA_ERROR_NONE;
 8000652:	6560      	str	r0, [r4, #84]	; 0x54
  hdma->State = HAL_DMA_STATE_READY;
 8000654:	f884 3035 	strb.w	r3, [r4, #53]	; 0x35
  return HAL_OK;
 8000658:	bd70      	pop	{r4, r5, r6, pc}
    if((HAL_GetTick() - tickstart ) > HAL_TIMEOUT_DMA_ABORT)
 800065a:	f7ff fe15 	bl	8000288 <HAL_GetTick>
 800065e:	1b40      	subs	r0, r0, r5
 8000660:	2805      	cmp	r0, #5
 8000662:	d9b9      	bls.n	80005d8 <HAL_DMA_Init+0x24>
      hdma->ErrorCode = HAL_DMA_ERROR_TIMEOUT;
 8000664:	2320      	movs	r3, #32
      hdma->State = HAL_DMA_STATE_TIMEOUT;
 8000666:	2003      	movs	r0, #3
      hdma->ErrorCode = HAL_DMA_ERROR_TIMEOUT;
 8000668:	6563      	str	r3, [r4, #84]	; 0x54
        hdma->State = HAL_DMA_STATE_READY;
 800066a:	f884 0035 	strb.w	r0, [r4, #53]	; 0x35
}
 800066e:	bd70      	pop	{r4, r5, r6, pc}
  else if (hdma->Init.MemDataAlignment == DMA_MDATAALIGN_HALFWORD)
 8000670:	f5b0 5f00 	cmp.w	r0, #8192	; 0x2000
 8000674:	d113      	bne.n	800069e <HAL_DMA_Init+0xea>
    switch (tmp)
 8000676:	2a03      	cmp	r2, #3
 8000678:	d8e1      	bhi.n	800063e <HAL_DMA_Init+0x8a>
 800067a:	a001      	add	r0, pc, #4	; (adr r0, 8000680 <HAL_DMA_Init+0xcc>)
 800067c:	f850 f022 	ldr.w	pc, [r0, r2, lsl #2]
 8000680:	08000697 	.word	0x08000697
 8000684:	0800063b 	.word	0x0800063b
 8000688:	08000697 	.word	0x08000697
 800068c:	08000691 	.word	0x08000691
      if (hdma->Init.MemBurst == DMA_MBURST_INC16)
 8000690:	f1b5 7fc0 	cmp.w	r5, #25165824	; 0x1800000
 8000694:	d1d3      	bne.n	800063e <HAL_DMA_Init+0x8a>
        hdma->ErrorCode = HAL_DMA_ERROR_PARAM;
 8000696:	2340      	movs	r3, #64	; 0x40
        hdma->State = HAL_DMA_STATE_READY;
 8000698:	2001      	movs	r0, #1
        hdma->ErrorCode = HAL_DMA_ERROR_PARAM;
 800069a:	6563      	str	r3, [r4, #84]	; 0x54
 800069c:	e7e5      	b.n	800066a <HAL_DMA_Init+0xb6>
    switch (tmp)
 800069e:	2a02      	cmp	r2, #2
 80006a0:	d9f9      	bls.n	8000696 <HAL_DMA_Init+0xe2>
 80006a2:	2a03      	cmp	r2, #3
 80006a4:	e7c8      	b.n	8000638 <HAL_DMA_Init+0x84>
    return HAL_ERROR;
 80006a6:	2001      	movs	r0, #1
 80006a8:	bd70      	pop	{r4, r5, r6, pc}
 80006aa:	bf00      	nop
 80006ac:	e010803f 	.word	0xe010803f

080006b0 <HAL_DMA_Start_IT>:
{
 80006b0:	b570      	push	{r4, r5, r6, lr}
  __HAL_LOCK(hdma);
 80006b2:	f890 4034 	ldrb.w	r4, [r0, #52]	; 0x34
 80006b6:	2c01      	cmp	r4, #1
 80006b8:	d035      	beq.n	8000726 <HAL_DMA_Start_IT+0x76>
 80006ba:	2401      	movs	r4, #1
  DMA_Base_Registers *regs = (DMA_Base_Registers *)hdma->StreamBaseAddress;
 80006bc:	6d86      	ldr	r6, [r0, #88]	; 0x58
 80006be:	2500      	movs	r5, #0
  __HAL_LOCK(hdma);
 80006c0:	f880 4034 	strb.w	r4, [r0, #52]	; 0x34
  if(HAL_DMA_STATE_READY == hdma->State)
 80006c4:	f890 4035 	ldrb.w	r4, [r0, #53]	; 0x35
 80006c8:	2c01      	cmp	r4, #1
 80006ca:	f04f 0402 	mov.w	r4, #2
 80006ce:	d128      	bne.n	8000722 <HAL_DMA_Start_IT+0x72>
    hdma->State = HAL_DMA_STATE_BUSY;
 80006d0:	f880 4035 	strb.w	r4, [r0, #53]	; 0x35
  hdma->Instance->CR &= (uint32_t)(~DMA_SxCR_DBM);
 80006d4:	6804      	ldr	r4, [r0, #0]
    hdma->ErrorCode = HAL_DMA_ERROR_NONE;
 80006d6:	6545      	str	r5, [r0, #84]	; 0x54
  hdma->Instance->CR &= (uint32_t)(~DMA_SxCR_DBM);
 80006d8:	6825      	ldr	r5, [r4, #0]
 80006da:	f425 2580 	bic.w	r5, r5, #262144	; 0x40000
 80006de:	6025      	str	r5, [r4, #0]
  hdma->Instance->NDTR = DataLength;
 80006e0:	6063      	str	r3, [r4, #4]
  if((hdma->Init.Direction) == DMA_MEMORY_TO_PERIPH)
 80006e2:	6883      	ldr	r3, [r0, #8]
 80006e4:	2b40      	cmp	r3, #64	; 0x40
 80006e6:	d119      	bne.n	800071c <HAL_DMA_Start_IT+0x6c>
    hdma->Instance->PAR = DstAddress;
 80006e8:	60a2      	str	r2, [r4, #8]
    hdma->Instance->M0AR = SrcAddress;
 80006ea:	60e1      	str	r1, [r4, #12]
    regs->IFCR = 0x3FU << hdma->StreamIndex;
 80006ec:	6dc2      	ldr	r2, [r0, #92]	; 0x5c
 80006ee:	233f      	movs	r3, #63	; 0x3f
 80006f0:	4093      	lsls	r3, r2
 80006f2:	60b3      	str	r3, [r6, #8]
    hdma->Instance->CR  |= DMA_IT_TC | DMA_IT_TE | DMA_IT_DME;
 80006f4:	6823      	ldr	r3, [r4, #0]
 80006f6:	f043 0316 	orr.w	r3, r3, #22
 80006fa:	6023      	str	r3, [r4, #0]
    hdma->Instance->FCR |= DMA_IT_FE;
 80006fc:	6963      	ldr	r3, [r4, #20]
 80006fe:	f043 0380 	orr.w	r3, r3, #128	; 0x80
 8000702:	6163      	str	r3, [r4, #20]
    if(hdma->XferHalfCpltCallback != NULL)
 8000704:	6c03      	ldr	r3, [r0, #64]	; 0x40
 8000706:	b11b      	cbz	r3, 8000710 <HAL_DMA_Start_IT+0x60>
      hdma->Instance->CR  |= DMA_IT_HT;
 8000708:	6823      	ldr	r3, [r4, #0]
 800070a:	f043 0308 	orr.w	r3, r3, #8
 800070e:	6023      	str	r3, [r4, #0]
    __HAL_DMA_ENABLE(hdma);
 8000710:	6823      	ldr	r3, [r4, #0]
  HAL_StatusTypeDef status = HAL_OK;
 8000712:	2000      	movs	r0, #0
    __HAL_DMA_ENABLE(hdma);
 8000714:	f043 0301 	orr.w	r3, r3, #1
 8000718:	6023      	str	r3, [r4, #0]
 800071a:	bd70      	pop	{r4, r5, r6, pc}
    hdma->Instance->PAR = SrcAddress;
 800071c:	60a1      	str	r1, [r4, #8]
    hdma->Instance->M0AR = DstAddress;
 800071e:	60e2      	str	r2, [r4, #12]
 8000720:	e7e4      	b.n	80006ec <HAL_DMA_Start_IT+0x3c>
    __HAL_UNLOCK(hdma);	  
 8000722:	f880 5034 	strb.w	r5, [r0, #52]	; 0x34
  __HAL_LOCK(hdma);
 8000726:	2002      	movs	r0, #2
}
 8000728:	bd70      	pop	{r4, r5, r6, pc}
	...

0800072c <HAL_DMA_IRQHandler>:
  __IO uint32_t count = 0;
 800072c:	2300      	movs	r3, #0
{
 800072e:	b5f7      	push	{r0, r1, r2, r4, r5, r6, r7, lr}
  __IO uint32_t count = 0;
 8000730:	9301      	str	r3, [sp, #4]
  if ((tmpisr & (DMA_FLAG_TEIF0_4 << hdma->StreamIndex)) != RESET)
 8000732:	2208      	movs	r2, #8
  uint32_t timeout = SystemCoreClock / 9600;
 8000734:	4b59      	ldr	r3, [pc, #356]	; (800089c <HAL_DMA_IRQHandler+0x170>)
{
 8000736:	4604      	mov	r4, r0
  DMA_Base_Registers *regs = (DMA_Base_Registers *)hdma->StreamBaseAddress;
 8000738:	6d85      	ldr	r5, [r0, #88]	; 0x58
  uint32_t timeout = SystemCoreClock / 9600;
 800073a:	681f      	ldr	r7, [r3, #0]
  if ((tmpisr & (DMA_FLAG_TEIF0_4 << hdma->StreamIndex)) != RESET)
 800073c:	6dc3      	ldr	r3, [r0, #92]	; 0x5c
  tmpisr = regs->ISR;
 800073e:	682e      	ldr	r6, [r5, #0]
  if ((tmpisr & (DMA_FLAG_TEIF0_4 << hdma->StreamIndex)) != RESET)
 8000740:	409a      	lsls	r2, r3
 8000742:	4216      	tst	r6, r2
 8000744:	d00c      	beq.n	8000760 <HAL_DMA_IRQHandler+0x34>
    if(__HAL_DMA_GET_IT_SOURCE(hdma, DMA_IT_TE) != RESET)
 8000746:	6801      	ldr	r1, [r0, #0]
 8000748:	6808      	ldr	r0, [r1, #0]
 800074a:	0740      	lsls	r0, r0, #29
 800074c:	d508      	bpl.n	8000760 <HAL_DMA_IRQHandler+0x34>
      hdma->Instance->CR  &= ~(DMA_IT_TE);
 800074e:	6808      	ldr	r0, [r1, #0]
 8000750:	f020 0004 	bic.w	r0, r0, #4
 8000754:	6008      	str	r0, [r1, #0]
      regs->IFCR = DMA_FLAG_TEIF0_4 << hdma->StreamIndex;
 8000756:	60aa      	str	r2, [r5, #8]
      hdma->ErrorCode |= HAL_DMA_ERROR_TE;
 8000758:	6d62      	ldr	r2, [r4, #84]	; 0x54
 800075a:	f042 0201 	orr.w	r2, r2, #1
 800075e:	6562      	str	r2, [r4, #84]	; 0x54
  if ((tmpisr & (DMA_FLAG_FEIF0_4 << hdma->StreamIndex)) != RESET)
 8000760:	4a4f      	ldr	r2, [pc, #316]	; (80008a0 <HAL_DMA_IRQHandler+0x174>)
 8000762:	409a      	lsls	r2, r3
 8000764:	4216      	tst	r6, r2
 8000766:	d008      	beq.n	800077a <HAL_DMA_IRQHandler+0x4e>
    if(__HAL_DMA_GET_IT_SOURCE(hdma, DMA_IT_FE) != RESET)
 8000768:	6821      	ldr	r1, [r4, #0]
 800076a:	6949      	ldr	r1, [r1, #20]
 800076c:	0609      	lsls	r1, r1, #24
 800076e:	d504      	bpl.n	800077a <HAL_DMA_IRQHandler+0x4e>
      regs->IFCR = DMA_FLAG_FEIF0_4 << hdma->StreamIndex;
 8000770:	60aa      	str	r2, [r5, #8]
      hdma->ErrorCode |= HAL_DMA_ERROR_FE;
 8000772:	6d62      	ldr	r2, [r4, #84]	; 0x54
 8000774:	f042 0202 	orr.w	r2, r2, #2
 8000778:	6562      	str	r2, [r4, #84]	; 0x54
  if ((tmpisr & (DMA_FLAG_DMEIF0_4 << hdma->StreamIndex)) != RESET)
 800077a:	4a4a      	ldr	r2, [pc, #296]	; (80008a4 <HAL_DMA_IRQHandler+0x178>)
 800077c:	409a      	lsls	r2, r3
 800077e:	4216      	tst	r6, r2
 8000780:	d008      	beq.n	8000794 <HAL_DMA_IRQHandler+0x68>
    if(__HAL_DMA_GET_IT_SOURCE(hdma, DMA_IT_DME) != RESET)
 8000782:	6821      	ldr	r1, [r4, #0]
 8000784:	6809      	ldr	r1, [r1, #0]
 8000786:	0788      	lsls	r0, r1, #30
 8000788:	d504      	bpl.n	8000794 <HAL_DMA_IRQHandler+0x68>
      regs->IFCR = DMA_FLAG_DMEIF0_4 << hdma->StreamIndex;
 800078a:	60aa      	str	r2, [r5, #8]
      hdma->ErrorCode |= HAL_DMA_ERROR_DME;
 800078c:	6d62      	ldr	r2, [r4, #84]	; 0x54
 800078e:	f042 0204 	orr.w	r2, r2, #4
 8000792:	6562      	str	r2, [r4, #84]	; 0x54
  if ((tmpisr & (DMA_FLAG_HTIF0_4 << hdma->StreamIndex)) != RESET)
 8000794:	2210      	movs	r2, #16
 8000796:	409a      	lsls	r2, r3
 8000798:	4216      	tst	r6, r2
 800079a:	d010      	beq.n	80007be <HAL_DMA_IRQHandler+0x92>
    if(__HAL_DMA_GET_IT_SOURCE(hdma, DMA_IT_HT) != RESET)
 800079c:	6823      	ldr	r3, [r4, #0]
 800079e:	6819      	ldr	r1, [r3, #0]
 80007a0:	0709      	lsls	r1, r1, #28
 80007a2:	d50c      	bpl.n	80007be <HAL_DMA_IRQHandler+0x92>
      regs->IFCR = DMA_FLAG_HTIF0_4 << hdma->StreamIndex;
 80007a4:	60aa      	str	r2, [r5, #8]
      if(((hdma->Instance->CR) & (uint32_t)(DMA_SxCR_DBM)) != RESET)
 80007a6:	681a      	ldr	r2, [r3, #0]
 80007a8:	0350      	lsls	r0, r2, #13
 80007aa:	d535      	bpl.n	8000818 <HAL_DMA_IRQHandler+0xec>
        if((hdma->Instance->CR & DMA_SxCR_CT) == RESET)
 80007ac:	681b      	ldr	r3, [r3, #0]
 80007ae:	0319      	lsls	r1, r3, #12
 80007b0:	d401      	bmi.n	80007b6 <HAL_DMA_IRQHandler+0x8a>
        if(hdma->XferHalfCpltCallback != NULL)
 80007b2:	6c23      	ldr	r3, [r4, #64]	; 0x40
 80007b4:	e000      	b.n	80007b8 <HAL_DMA_IRQHandler+0x8c>
          if(hdma->XferM1HalfCpltCallback != NULL)
 80007b6:	6ca3      	ldr	r3, [r4, #72]	; 0x48
        if(hdma->XferHalfCpltCallback != NULL)
 80007b8:	b10b      	cbz	r3, 80007be <HAL_DMA_IRQHandler+0x92>
          hdma->XferHalfCpltCallback(hdma);
 80007ba:	4620      	mov	r0, r4
 80007bc:	4798      	blx	r3
  if ((tmpisr & (DMA_FLAG_TCIF0_4 << hdma->StreamIndex)) != RESET)
 80007be:	6de1      	ldr	r1, [r4, #92]	; 0x5c
 80007c0:	2220      	movs	r2, #32
 80007c2:	408a      	lsls	r2, r1
 80007c4:	4216      	tst	r6, r2
 80007c6:	d038      	beq.n	800083a <HAL_DMA_IRQHandler+0x10e>
    if(__HAL_DMA_GET_IT_SOURCE(hdma, DMA_IT_TC) != RESET)
 80007c8:	6823      	ldr	r3, [r4, #0]
 80007ca:	6818      	ldr	r0, [r3, #0]
 80007cc:	06c6      	lsls	r6, r0, #27
 80007ce:	d534      	bpl.n	800083a <HAL_DMA_IRQHandler+0x10e>
      regs->IFCR = DMA_FLAG_TCIF0_4 << hdma->StreamIndex;
 80007d0:	60aa      	str	r2, [r5, #8]
      if(HAL_DMA_STATE_ABORT == hdma->State)
 80007d2:	f894 2035 	ldrb.w	r2, [r4, #53]	; 0x35
 80007d6:	2a05      	cmp	r2, #5
        hdma->Instance->CR  &= ~(DMA_IT_TC | DMA_IT_TE | DMA_IT_DME);
 80007d8:	681a      	ldr	r2, [r3, #0]
      if(HAL_DMA_STATE_ABORT == hdma->State)
 80007da:	d125      	bne.n	8000828 <HAL_DMA_IRQHandler+0xfc>
        hdma->Instance->CR  &= ~(DMA_IT_TC | DMA_IT_TE | DMA_IT_DME);
 80007dc:	f022 0216 	bic.w	r2, r2, #22
 80007e0:	601a      	str	r2, [r3, #0]
        hdma->Instance->FCR &= ~(DMA_IT_FE);
 80007e2:	695a      	ldr	r2, [r3, #20]
 80007e4:	f022 0280 	bic.w	r2, r2, #128	; 0x80
 80007e8:	615a      	str	r2, [r3, #20]
        if((hdma->XferHalfCpltCallback != NULL) || (hdma->XferM1HalfCpltCallback != NULL))
 80007ea:	6c22      	ldr	r2, [r4, #64]	; 0x40
 80007ec:	b90a      	cbnz	r2, 80007f2 <HAL_DMA_IRQHandler+0xc6>
 80007ee:	6ca2      	ldr	r2, [r4, #72]	; 0x48
 80007f0:	b11a      	cbz	r2, 80007fa <HAL_DMA_IRQHandler+0xce>
          hdma->Instance->CR  &= ~(DMA_IT_HT);
 80007f2:	681a      	ldr	r2, [r3, #0]
 80007f4:	f022 0208 	bic.w	r2, r2, #8
 80007f8:	601a      	str	r2, [r3, #0]
        regs->IFCR = 0x3FU << hdma->StreamIndex;
 80007fa:	233f      	movs	r3, #63	; 0x3f
 80007fc:	408b      	lsls	r3, r1
 80007fe:	60ab      	str	r3, [r5, #8]
        __HAL_UNLOCK(hdma);
 8000800:	2300      	movs	r3, #0
 8000802:	f884 3034 	strb.w	r3, [r4, #52]	; 0x34
        hdma->State = HAL_DMA_STATE_READY;
 8000806:	2301      	movs	r3, #1
 8000808:	f884 3035 	strb.w	r3, [r4, #53]	; 0x35
        if(hdma->XferAbortCallback != NULL)
 800080c:	6d23      	ldr	r3, [r4, #80]	; 0x50
    if(hdma->XferErrorCallback != NULL)
 800080e:	b10b      	cbz	r3, 8000814 <HAL_DMA_IRQHandler+0xe8>
      hdma->XferErrorCallback(hdma);
 8000810:	4620      	mov	r0, r4
 8000812:	4798      	blx	r3
}
 8000814:	b003      	add	sp, #12
 8000816:	bdf0      	pop	{r4, r5, r6, r7, pc}
        if((hdma->Instance->CR & DMA_SxCR_CIRC) == RESET)
 8000818:	681a      	ldr	r2, [r3, #0]
 800081a:	05d2      	lsls	r2, r2, #23
 800081c:	d4c9      	bmi.n	80007b2 <HAL_DMA_IRQHandler+0x86>
          hdma->Instance->CR  &= ~(DMA_IT_HT);
 800081e:	681a      	ldr	r2, [r3, #0]
 8000820:	f022 0208 	bic.w	r2, r2, #8
 8000824:	601a      	str	r2, [r3, #0]
 8000826:	e7c4      	b.n	80007b2 <HAL_DMA_IRQHandler+0x86>
      if(((hdma->Instance->CR) & (uint32_t)(DMA_SxCR_DBM)) != RESET)
 8000828:	0350      	lsls	r0, r2, #13
 800082a:	d528      	bpl.n	800087e <HAL_DMA_IRQHandler+0x152>
        if((hdma->Instance->CR & DMA_SxCR_CT) == RESET)
 800082c:	681b      	ldr	r3, [r3, #0]
 800082e:	0319      	lsls	r1, r3, #12
 8000830:	d432      	bmi.n	8000898 <HAL_DMA_IRQHandler+0x16c>
          if(hdma->XferM1CpltCallback != NULL)
 8000832:	6c63      	ldr	r3, [r4, #68]	; 0x44
        if(hdma->XferCpltCallback != NULL)
 8000834:	b10b      	cbz	r3, 800083a <HAL_DMA_IRQHandler+0x10e>
          hdma->XferCpltCallback(hdma);
 8000836:	4620      	mov	r0, r4
 8000838:	4798      	blx	r3
  if(hdma->ErrorCode != HAL_DMA_ERROR_NONE)
 800083a:	6d63      	ldr	r3, [r4, #84]	; 0x54
 800083c:	2b00      	cmp	r3, #0
 800083e:	d0e9      	beq.n	8000814 <HAL_DMA_IRQHandler+0xe8>
    if((hdma->ErrorCode & HAL_DMA_ERROR_TE) != RESET)
 8000840:	6d63      	ldr	r3, [r4, #84]	; 0x54
 8000842:	07da      	lsls	r2, r3, #31
 8000844:	d519      	bpl.n	800087a <HAL_DMA_IRQHandler+0x14e>
      hdma->State = HAL_DMA_STATE_ABORT;
 8000846:	2305      	movs	r3, #5
      __HAL_DMA_DISABLE(hdma);
 8000848:	6822      	ldr	r2, [r4, #0]
      hdma->State = HAL_DMA_STATE_ABORT;
 800084a:	f884 3035 	strb.w	r3, [r4, #53]	; 0x35
      __HAL_DMA_DISABLE(hdma);
 800084e:	6813      	ldr	r3, [r2, #0]
 8000850:	f023 0301 	bic.w	r3, r3, #1
 8000854:	6013      	str	r3, [r2, #0]
  uint32_t timeout = SystemCoreClock / 9600;
 8000856:	f44f 5316 	mov.w	r3, #9600	; 0x2580
 800085a:	fbb7 f7f3 	udiv	r7, r7, r3
        if (++count > timeout)
 800085e:	9b01      	ldr	r3, [sp, #4]
 8000860:	3301      	adds	r3, #1
 8000862:	429f      	cmp	r7, r3
 8000864:	9301      	str	r3, [sp, #4]
 8000866:	d302      	bcc.n	800086e <HAL_DMA_IRQHandler+0x142>
      while((hdma->Instance->CR & DMA_SxCR_EN) != RESET);
 8000868:	6813      	ldr	r3, [r2, #0]
 800086a:	07db      	lsls	r3, r3, #31
 800086c:	d4f7      	bmi.n	800085e <HAL_DMA_IRQHandler+0x132>
      __HAL_UNLOCK(hdma);
 800086e:	2300      	movs	r3, #0
 8000870:	f884 3034 	strb.w	r3, [r4, #52]	; 0x34
      hdma->State = HAL_DMA_STATE_READY;
 8000874:	2301      	movs	r3, #1
 8000876:	f884 3035 	strb.w	r3, [r4, #53]	; 0x35
    if(hdma->XferErrorCallback != NULL)
 800087a:	6ce3      	ldr	r3, [r4, #76]	; 0x4c
 800087c:	e7c7      	b.n	800080e <HAL_DMA_IRQHandler+0xe2>
        if((hdma->Instance->CR & DMA_SxCR_CIRC) == RESET)
 800087e:	681a      	ldr	r2, [r3, #0]
 8000880:	f412 7280 	ands.w	r2, r2, #256	; 0x100
 8000884:	d108      	bne.n	8000898 <HAL_DMA_IRQHandler+0x16c>
          hdma->Instance->CR  &= ~(DMA_IT_TC);
 8000886:	6819      	ldr	r1, [r3, #0]
 8000888:	f021 0110 	bic.w	r1, r1, #16
 800088c:	6019      	str	r1, [r3, #0]
          hdma->State = HAL_DMA_STATE_READY;
 800088e:	2301      	movs	r3, #1
          __HAL_UNLOCK(hdma);
 8000890:	f884 2034 	strb.w	r2, [r4, #52]	; 0x34
          hdma->State = HAL_DMA_STATE_READY;
 8000894:	f884 3035 	strb.w	r3, [r4, #53]	; 0x35
        if(hdma->XferCpltCallback != NULL)
 8000898:	6be3      	ldr	r3, [r4, #60]	; 0x3c
 800089a:	e7cb      	b.n	8000834 <HAL_DMA_IRQHandler+0x108>
 800089c:	20000000 	.word	0x20000000
 80008a0:	00800001 	.word	0x00800001
 80008a4:	00800004 	.word	0x00800004

080008a8 <HAL_GPIO_Init>:
  * @param  GPIO_Init: pointer to a GPIO_InitTypeDef structure that contains
  *         the configuration information for the specified GPIO peripheral.
  * @retval None
  */
void HAL_GPIO_Init(GPIO_TypeDef  *GPIOx, GPIO_InitTypeDef *GPIO_Init)
{
 80008a8:	e92d 4ff0 	stmdb	sp!, {r4, r5, r6, r7, r8, r9, sl, fp, lr}
  for(position = 0; position < GPIO_NUMBER; position++)
  {
    /* Get the IO position */
    ioposition = ((uint32_t)0x01) << position;
    /* Get the current IO position */
    iocurrent = (uint32_t)(GPIO_Init->Pin) & ioposition;
 80008ac:	680b      	ldr	r3, [r1, #0]
{
 80008ae:	b085      	sub	sp, #20
      /*--------------------- EXTI Mode Configuration ------------------------*/
      /* Configure the External Interrupt or event for the current IO */
      if((GPIO_Init->Mode & EXTI_MODE) == EXTI_MODE)
      {
        /* Enable SYSCFG Clock */
        __HAL_RCC_SYSCFG_CLK_ENABLE();
 80008b0:	f8df 81c0 	ldr.w	r8, [pc, #448]	; 8000a74 <HAL_GPIO_Init+0x1cc>
    iocurrent = (uint32_t)(GPIO_Init->Pin) & ioposition;
 80008b4:	9301      	str	r3, [sp, #4]
  for(position = 0; position < GPIO_NUMBER; position++)
 80008b6:	2300      	movs	r3, #0
        temp &= ~(((uint32_t)0x0F) << (4 * (position & 0x03)));
        temp |= ((uint32_t)(GPIO_GET_INDEX(GPIOx)) << (4 * (position & 0x03)));
        SYSCFG->EXTICR[position >> 2] = temp;

        /* Clear EXTI line configuration */
        temp = EXTI->IMR;
 80008b8:	4a6c      	ldr	r2, [pc, #432]	; (8000a6c <HAL_GPIO_Init+0x1c4>)
        temp |= ((uint32_t)(GPIO_GET_INDEX(GPIOx)) << (4 * (position & 0x03)));
 80008ba:	f8df 91bc 	ldr.w	r9, [pc, #444]	; 8000a78 <HAL_GPIO_Init+0x1d0>
    ioposition = ((uint32_t)0x01) << position;
 80008be:	f04f 0e01 	mov.w	lr, #1
    iocurrent = (uint32_t)(GPIO_Init->Pin) & ioposition;
 80008c2:	9c01      	ldr	r4, [sp, #4]
    ioposition = ((uint32_t)0x01) << position;
 80008c4:	fa0e fe03 	lsl.w	lr, lr, r3
    iocurrent = (uint32_t)(GPIO_Init->Pin) & ioposition;
 80008c8:	ea0e 0604 	and.w	r6, lr, r4
    if(iocurrent == ioposition)
 80008cc:	45b6      	cmp	lr, r6
 80008ce:	f040 80b3 	bne.w	8000a38 <HAL_GPIO_Init+0x190>
      if((GPIO_Init->Mode == GPIO_MODE_AF_PP) || (GPIO_Init->Mode == GPIO_MODE_AF_OD))
 80008d2:	684c      	ldr	r4, [r1, #4]
 80008d4:	f024 0710 	bic.w	r7, r4, #16
 80008d8:	2f02      	cmp	r7, #2
 80008da:	d116      	bne.n	800090a <HAL_GPIO_Init+0x62>
        temp = GPIOx->AFR[position >> 3];
 80008dc:	ea4f 0ad3 	mov.w	sl, r3, lsr #3
        temp &= ~((uint32_t)0xF << ((uint32_t)(position & (uint32_t)0x07) * 4)) ;
 80008e0:	f003 0b07 	and.w	fp, r3, #7
 80008e4:	f04f 0c0f 	mov.w	ip, #15
 80008e8:	eb00 0a8a 	add.w	sl, r0, sl, lsl #2
 80008ec:	ea4f 0b8b 	mov.w	fp, fp, lsl #2
        temp = GPIOx->AFR[position >> 3];
 80008f0:	f8da 5020 	ldr.w	r5, [sl, #32]
        temp &= ~((uint32_t)0xF << ((uint32_t)(position & (uint32_t)0x07) * 4)) ;
 80008f4:	fa0c fc0b 	lsl.w	ip, ip, fp
 80008f8:	ea25 0c0c 	bic.w	ip, r5, ip
        temp |= ((uint32_t)(GPIO_Init->Alternate) << (((uint32_t)position & (uint32_t)0x07) * 4));
 80008fc:	690d      	ldr	r5, [r1, #16]
 80008fe:	fa05 f50b 	lsl.w	r5, r5, fp
 8000902:	ea45 050c 	orr.w	r5, r5, ip
        GPIOx->AFR[position >> 3] = temp;
 8000906:	f8ca 5020 	str.w	r5, [sl, #32]
 800090a:	ea4f 0a43 	mov.w	sl, r3, lsl #1
      temp &= ~(GPIO_MODER_MODER0 << (position * 2));
 800090e:	2503      	movs	r5, #3
      temp = GPIOx->MODER;
 8000910:	f8d0 b000 	ldr.w	fp, [r0]
      temp |= ((GPIO_Init->Mode & GPIO_MODE) << (position * 2));
 8000914:	f004 0c03 	and.w	ip, r4, #3
      temp &= ~(GPIO_MODER_MODER0 << (position * 2));
 8000918:	fa05 f50a 	lsl.w	r5, r5, sl
      if((GPIO_Init->Mode == GPIO_MODE_OUTPUT_PP) || (GPIO_Init->Mode == GPIO_MODE_AF_PP) ||
 800091c:	3f01      	subs	r7, #1
      temp |= ((GPIO_Init->Mode & GPIO_MODE) << (position * 2));
 800091e:	fa0c fc0a 	lsl.w	ip, ip, sl
      temp &= ~(GPIO_MODER_MODER0 << (position * 2));
 8000922:	43ed      	mvns	r5, r5
      if((GPIO_Init->Mode == GPIO_MODE_OUTPUT_PP) || (GPIO_Init->Mode == GPIO_MODE_AF_PP) ||
 8000924:	2f01      	cmp	r7, #1
      temp &= ~(GPIO_MODER_MODER0 << (position * 2));
 8000926:	ea0b 0b05 	and.w	fp, fp, r5
      temp |= ((GPIO_Init->Mode & GPIO_MODE) << (position * 2));
 800092a:	ea4c 0c0b 	orr.w	ip, ip, fp
      GPIOx->MODER = temp;
 800092e:	f8c0 c000 	str.w	ip, [r0]
      if((GPIO_Init->Mode == GPIO_MODE_OUTPUT_PP) || (GPIO_Init->Mode == GPIO_MODE_AF_PP) ||
 8000932:	d811      	bhi.n	8000958 <HAL_GPIO_Init+0xb0>
        temp = GPIOx->OSPEEDR; 
 8000934:	6887      	ldr	r7, [r0, #8]
        temp &= ~(GPIO_OSPEEDER_OSPEEDR0 << (position * 2));
 8000936:	ea07 0b05 	and.w	fp, r7, r5
        temp |= (GPIO_Init->Speed << (position * 2));
 800093a:	68cf      	ldr	r7, [r1, #12]
 800093c:	fa07 fc0a 	lsl.w	ip, r7, sl
 8000940:	ea4c 070b 	orr.w	r7, ip, fp
        GPIOx->OSPEEDR = temp;
 8000944:	6087      	str	r7, [r0, #8]
        temp = GPIOx->OTYPER;
 8000946:	6847      	ldr	r7, [r0, #4]
        temp &= ~(GPIO_OTYPER_OT_0 << position) ;
 8000948:	ea27 0e0e 	bic.w	lr, r7, lr
        temp |= (((GPIO_Init->Mode & GPIO_OUTPUT_TYPE) >> 4) << position);
 800094c:	f3c4 1700 	ubfx	r7, r4, #4, #1
 8000950:	409f      	lsls	r7, r3
 8000952:	ea47 070e 	orr.w	r7, r7, lr
        GPIOx->OTYPER = temp;
 8000956:	6047      	str	r7, [r0, #4]
      temp = GPIOx->PUPDR;
 8000958:	68c7      	ldr	r7, [r0, #12]
      temp &= ~(GPIO_PUPDR_PUPDR0 << (position * 2));
 800095a:	403d      	ands	r5, r7
      temp |= ((GPIO_Init->Pull) << (position * 2));
 800095c:	688f      	ldr	r7, [r1, #8]
 800095e:	fa07 f70a 	lsl.w	r7, r7, sl
 8000962:	433d      	orrs	r5, r7
      GPIOx->PUPDR = temp;
 8000964:	60c5      	str	r5, [r0, #12]
      if((GPIO_Init->Mode & EXTI_MODE) == EXTI_MODE)
 8000966:	00e5      	lsls	r5, r4, #3
 8000968:	d566      	bpl.n	8000a38 <HAL_GPIO_Init+0x190>
        __HAL_RCC_SYSCFG_CLK_ENABLE();
 800096a:	f8d8 5044 	ldr.w	r5, [r8, #68]	; 0x44
 800096e:	f023 0703 	bic.w	r7, r3, #3
        temp &= ~(((uint32_t)0x0F) << (4 * (position & 0x03)));
 8000972:	f003 0e03 	and.w	lr, r3, #3
 8000976:	f04f 0c0f 	mov.w	ip, #15
        __HAL_RCC_SYSCFG_CLK_ENABLE();
 800097a:	f445 4580 	orr.w	r5, r5, #16384	; 0x4000
 800097e:	f107 4780 	add.w	r7, r7, #1073741824	; 0x40000000
        temp &= ~(((uint32_t)0x0F) << (4 * (position & 0x03)));
 8000982:	ea4f 0e8e 	mov.w	lr, lr, lsl #2
        __HAL_RCC_SYSCFG_CLK_ENABLE();
 8000986:	f8c8 5044 	str.w	r5, [r8, #68]	; 0x44
 800098a:	f507 379c 	add.w	r7, r7, #79872	; 0x13800
 800098e:	f8d8 5044 	ldr.w	r5, [r8, #68]	; 0x44
 8000992:	f405 4580 	and.w	r5, r5, #16384	; 0x4000
 8000996:	9503      	str	r5, [sp, #12]
 8000998:	9d03      	ldr	r5, [sp, #12]
        temp &= ~(((uint32_t)0x0F) << (4 * (position & 0x03)));
 800099a:	fa0c f50e 	lsl.w	r5, ip, lr
        temp = SYSCFG->EXTICR[position >> 2];
 800099e:	f8d7 a008 	ldr.w	sl, [r7, #8]
        temp &= ~(((uint32_t)0x0F) << (4 * (position & 0x03)));
 80009a2:	ea2a 0c05 	bic.w	ip, sl, r5
        temp |= ((uint32_t)(GPIO_GET_INDEX(GPIOx)) << (4 * (position & 0x03)));
 80009a6:	4d32      	ldr	r5, [pc, #200]	; (8000a70 <HAL_GPIO_Init+0x1c8>)
 80009a8:	42a8      	cmp	r0, r5
 80009aa:	d04c      	beq.n	8000a46 <HAL_GPIO_Init+0x19e>
 80009ac:	f505 6580 	add.w	r5, r5, #1024	; 0x400
 80009b0:	42a8      	cmp	r0, r5
 80009b2:	d04a      	beq.n	8000a4a <HAL_GPIO_Init+0x1a2>
 80009b4:	f505 6580 	add.w	r5, r5, #1024	; 0x400
 80009b8:	42a8      	cmp	r0, r5
 80009ba:	d048      	beq.n	8000a4e <HAL_GPIO_Init+0x1a6>
 80009bc:	f505 6580 	add.w	r5, r5, #1024	; 0x400
 80009c0:	42a8      	cmp	r0, r5
 80009c2:	d046      	beq.n	8000a52 <HAL_GPIO_Init+0x1aa>
 80009c4:	f505 6580 	add.w	r5, r5, #1024	; 0x400
 80009c8:	42a8      	cmp	r0, r5
 80009ca:	d044      	beq.n	8000a56 <HAL_GPIO_Init+0x1ae>
 80009cc:	4548      	cmp	r0, r9
 80009ce:	d044      	beq.n	8000a5a <HAL_GPIO_Init+0x1b2>
 80009d0:	f505 6500 	add.w	r5, r5, #2048	; 0x800
 80009d4:	42a8      	cmp	r0, r5
 80009d6:	d042      	beq.n	8000a5e <HAL_GPIO_Init+0x1b6>
 80009d8:	f505 6580 	add.w	r5, r5, #1024	; 0x400
 80009dc:	42a8      	cmp	r0, r5
 80009de:	d040      	beq.n	8000a62 <HAL_GPIO_Init+0x1ba>
 80009e0:	f505 6580 	add.w	r5, r5, #1024	; 0x400
 80009e4:	42a8      	cmp	r0, r5
 80009e6:	d03e      	beq.n	8000a66 <HAL_GPIO_Init+0x1be>
 80009e8:	f505 6580 	add.w	r5, r5, #1024	; 0x400
 80009ec:	42a8      	cmp	r0, r5
 80009ee:	bf14      	ite	ne
 80009f0:	250a      	movne	r5, #10
 80009f2:	2509      	moveq	r5, #9
 80009f4:	fa05 f50e 	lsl.w	r5, r5, lr
        temp &= ~((uint32_t)iocurrent);
        if((GPIO_Init->Mode & GPIO_MODE_IT) == GPIO_MODE_IT)
 80009f8:	f414 3f80 	tst.w	r4, #65536	; 0x10000
        temp |= ((uint32_t)(GPIO_GET_INDEX(GPIOx)) << (4 * (position & 0x03)));
 80009fc:	ea45 050c 	orr.w	r5, r5, ip
        SYSCFG->EXTICR[position >> 2] = temp;
 8000a00:	60bd      	str	r5, [r7, #8]
        temp &= ~((uint32_t)iocurrent);
 8000a02:	ea6f 0706 	mvn.w	r7, r6
        temp = EXTI->IMR;
 8000a06:	6815      	ldr	r5, [r2, #0]
        temp &= ~((uint32_t)iocurrent);
 8000a08:	bf0c      	ite	eq
 8000a0a:	403d      	andeq	r5, r7
        {
          temp |= iocurrent;
 8000a0c:	4335      	orrne	r5, r6
        }
        EXTI->IMR = temp;

        temp = EXTI->EMR;
        temp &= ~((uint32_t)iocurrent);
        if((GPIO_Init->Mode & GPIO_MODE_EVT) == GPIO_MODE_EVT)
 8000a0e:	f414 3f00 	tst.w	r4, #131072	; 0x20000
        EXTI->IMR = temp;
 8000a12:	6015      	str	r5, [r2, #0]
        temp = EXTI->EMR;
 8000a14:	6855      	ldr	r5, [r2, #4]
        temp &= ~((uint32_t)iocurrent);
 8000a16:	bf0c      	ite	eq
 8000a18:	403d      	andeq	r5, r7
        {
          temp |= iocurrent;
 8000a1a:	4335      	orrne	r5, r6
        EXTI->EMR = temp;

        /* Clear Rising Falling edge configuration */
        temp = EXTI->RTSR;
        temp &= ~((uint32_t)iocurrent);
        if((GPIO_Init->Mode & RISING_EDGE) == RISING_EDGE)
 8000a1c:	f414 1f80 	tst.w	r4, #1048576	; 0x100000
        EXTI->EMR = temp;
 8000a20:	6055      	str	r5, [r2, #4]
        temp = EXTI->RTSR;
 8000a22:	6895      	ldr	r5, [r2, #8]
        temp &= ~((uint32_t)iocurrent);
 8000a24:	bf0c      	ite	eq
 8000a26:	403d      	andeq	r5, r7
        {
          temp |= iocurrent;
 8000a28:	4335      	orrne	r5, r6
        }
        EXTI->RTSR = temp;

        temp = EXTI->FTSR;
        temp &= ~((uint32_t)iocurrent);
        if((GPIO_Init->Mode & FALLING_EDGE) == FALLING_EDGE)
 8000a2a:	02a4      	lsls	r4, r4, #10
        EXTI->RTSR = temp;
 8000a2c:	6095      	str	r5, [r2, #8]
        temp = EXTI->FTSR;
 8000a2e:	68d5      	ldr	r5, [r2, #12]
        temp &= ~((uint32_t)iocurrent);
 8000a30:	bf54      	ite	pl
 8000a32:	403d      	andpl	r5, r7
        {
          temp |= iocurrent;
 8000a34:	4335      	orrmi	r5, r6
        }
        EXTI->FTSR = temp;
 8000a36:	60d5      	str	r5, [r2, #12]
  for(position = 0; position < GPIO_NUMBER; position++)
 8000a38:	3301      	adds	r3, #1
 8000a3a:	2b10      	cmp	r3, #16
 8000a3c:	f47f af3f 	bne.w	80008be <HAL_GPIO_Init+0x16>
      }
    }
  }
}
 8000a40:	b005      	add	sp, #20
 8000a42:	e8bd 8ff0 	ldmia.w	sp!, {r4, r5, r6, r7, r8, r9, sl, fp, pc}
        temp |= ((uint32_t)(GPIO_GET_INDEX(GPIOx)) << (4 * (position & 0x03)));
 8000a46:	2500      	movs	r5, #0
 8000a48:	e7d4      	b.n	80009f4 <HAL_GPIO_Init+0x14c>
 8000a4a:	2501      	movs	r5, #1
 8000a4c:	e7d2      	b.n	80009f4 <HAL_GPIO_Init+0x14c>
 8000a4e:	2502      	movs	r5, #2
 8000a50:	e7d0      	b.n	80009f4 <HAL_GPIO_Init+0x14c>
 8000a52:	2503      	movs	r5, #3
 8000a54:	e7ce      	b.n	80009f4 <HAL_GPIO_Init+0x14c>
 8000a56:	2504      	movs	r5, #4
 8000a58:	e7cc      	b.n	80009f4 <HAL_GPIO_Init+0x14c>
 8000a5a:	2505      	movs	r5, #5
 8000a5c:	e7ca      	b.n	80009f4 <HAL_GPIO_Init+0x14c>
 8000a5e:	2506      	movs	r5, #6
 8000a60:	e7c8      	b.n	80009f4 <HAL_GPIO_Init+0x14c>
 8000a62:	2507      	movs	r5, #7
 8000a64:	e7c6      	b.n	80009f4 <HAL_GPIO_Init+0x14c>
 8000a66:	2508      	movs	r5, #8
 8000a68:	e7c4      	b.n	80009f4 <HAL_GPIO_Init+0x14c>
 8000a6a:	bf00      	nop
 8000a6c:	40013c00 	.word	0x40013c00
 8000a70:	40020000 	.word	0x40020000
 8000a74:	40023800 	.word	0x40023800
 8000a78:	40021400 	.word	0x40021400

08000a7c <HAL_GPIO_TogglePin>:
void HAL_GPIO_TogglePin(GPIO_TypeDef* GPIOx, uint16_t GPIO_Pin)
{
  /* Check the parameters */
  assert_param(IS_GPIO_PIN(GPIO_Pin));

  GPIOx->ODR ^= GPIO_Pin;
 8000a7c:	6943      	ldr	r3, [r0, #20]
 8000a7e:	4059      	eors	r1, r3
 8000a80:	6141      	str	r1, [r0, #20]
 8000a82:	4770      	bx	lr

08000a84 <HAL_RCC_OscConfig>:
  *         supported by this function. User should request a transition to HSE Off
  *         first and then HSE On or HSE Bypass.
  * @retval HAL status
  */
HAL_StatusTypeDef HAL_RCC_OscConfig(RCC_OscInitTypeDef  *RCC_OscInitStruct)
{
 8000a84:	e92d 41f3 	stmdb	sp!, {r0, r1, r4, r5, r6, r7, r8, lr}
  uint32_t tickstart;
  FlagStatus pwrclkchanged = RESET;

  /* Check Null pointer */
  if(RCC_OscInitStruct == NULL)
 8000a88:	4604      	mov	r4, r0
 8000a8a:	b918      	cbnz	r0, 8000a94 <HAL_RCC_OscConfig+0x10>
  {
    return HAL_ERROR;
 8000a8c:	2001      	movs	r0, #1
    {
      return HAL_ERROR;
    }
  }
  return HAL_OK;
}
 8000a8e:	b002      	add	sp, #8
 8000a90:	e8bd 81f0 	ldmia.w	sp!, {r4, r5, r6, r7, r8, pc}
  if(((RCC_OscInitStruct->OscillatorType) & RCC_OSCILLATORTYPE_HSE) == RCC_OSCILLATORTYPE_HSE)
 8000a94:	6803      	ldr	r3, [r0, #0]
 8000a96:	07d8      	lsls	r0, r3, #31
 8000a98:	d410      	bmi.n	8000abc <HAL_RCC_OscConfig+0x38>
  if(((RCC_OscInitStruct->OscillatorType) & RCC_OSCILLATORTYPE_HSI) == RCC_OSCILLATORTYPE_HSI)
 8000a9a:	6823      	ldr	r3, [r4, #0]
 8000a9c:	0799      	lsls	r1, r3, #30
 8000a9e:	d45e      	bmi.n	8000b5e <HAL_RCC_OscConfig+0xda>
  if(((RCC_OscInitStruct->OscillatorType) & RCC_OSCILLATORTYPE_LSI) == RCC_OSCILLATORTYPE_LSI)
 8000aa0:	6823      	ldr	r3, [r4, #0]
 8000aa2:	0719      	lsls	r1, r3, #28
 8000aa4:	f100 80a3 	bmi.w	8000bee <HAL_RCC_OscConfig+0x16a>
  if(((RCC_OscInitStruct->OscillatorType) & RCC_OSCILLATORTYPE_LSE) == RCC_OSCILLATORTYPE_LSE)
 8000aa8:	6823      	ldr	r3, [r4, #0]
 8000aaa:	075a      	lsls	r2, r3, #29
 8000aac:	f100 80c4 	bmi.w	8000c38 <HAL_RCC_OscConfig+0x1b4>
  if ((RCC_OscInitStruct->PLL.PLLState) != RCC_PLL_NONE)
 8000ab0:	69a2      	ldr	r2, [r4, #24]
 8000ab2:	2a00      	cmp	r2, #0
 8000ab4:	f040 812e 	bne.w	8000d14 <HAL_RCC_OscConfig+0x290>
  return HAL_OK;
 8000ab8:	2000      	movs	r0, #0
 8000aba:	e7e8      	b.n	8000a8e <HAL_RCC_OscConfig+0xa>
    if((__HAL_RCC_GET_SYSCLK_SOURCE() == RCC_SYSCLKSOURCE_STATUS_HSE)
 8000abc:	4b93      	ldr	r3, [pc, #588]	; (8000d0c <HAL_RCC_OscConfig+0x288>)
 8000abe:	689a      	ldr	r2, [r3, #8]
 8000ac0:	f002 020c 	and.w	r2, r2, #12
 8000ac4:	2a04      	cmp	r2, #4
 8000ac6:	d007      	beq.n	8000ad8 <HAL_RCC_OscConfig+0x54>
       || ((__HAL_RCC_GET_SYSCLK_SOURCE() == RCC_SYSCLKSOURCE_STATUS_PLLCLK) && ((RCC->PLLCFGR & RCC_PLLCFGR_PLLSRC) == RCC_PLLCFGR_PLLSRC_HSE)))
 8000ac8:	689a      	ldr	r2, [r3, #8]
 8000aca:	f002 020c 	and.w	r2, r2, #12
 8000ace:	2a08      	cmp	r2, #8
 8000ad0:	d10a      	bne.n	8000ae8 <HAL_RCC_OscConfig+0x64>
 8000ad2:	685b      	ldr	r3, [r3, #4]
 8000ad4:	025a      	lsls	r2, r3, #9
 8000ad6:	d507      	bpl.n	8000ae8 <HAL_RCC_OscConfig+0x64>
      if((__HAL_RCC_GET_FLAG(RCC_FLAG_HSERDY) != RESET) && (RCC_OscInitStruct->HSEState == RCC_HSE_OFF))
 8000ad8:	4b8c      	ldr	r3, [pc, #560]	; (8000d0c <HAL_RCC_OscConfig+0x288>)
 8000ada:	681b      	ldr	r3, [r3, #0]
 8000adc:	039b      	lsls	r3, r3, #14
 8000ade:	d5dc      	bpl.n	8000a9a <HAL_RCC_OscConfig+0x16>
 8000ae0:	6863      	ldr	r3, [r4, #4]
 8000ae2:	2b00      	cmp	r3, #0
 8000ae4:	d1d9      	bne.n	8000a9a <HAL_RCC_OscConfig+0x16>
 8000ae6:	e7d1      	b.n	8000a8c <HAL_RCC_OscConfig+0x8>
      __HAL_RCC_HSE_CONFIG(RCC_OscInitStruct->HSEState);
 8000ae8:	6863      	ldr	r3, [r4, #4]
 8000aea:	4d88      	ldr	r5, [pc, #544]	; (8000d0c <HAL_RCC_OscConfig+0x288>)
 8000aec:	f5b3 3f80 	cmp.w	r3, #65536	; 0x10000
 8000af0:	d111      	bne.n	8000b16 <HAL_RCC_OscConfig+0x92>
 8000af2:	682b      	ldr	r3, [r5, #0]
 8000af4:	f443 3380 	orr.w	r3, r3, #65536	; 0x10000
 8000af8:	602b      	str	r3, [r5, #0]
        tickstart = HAL_GetTick();
 8000afa:	f7ff fbc5 	bl	8000288 <HAL_GetTick>
        while(__HAL_RCC_GET_FLAG(RCC_FLAG_HSERDY) == RESET)
 8000afe:	4d83      	ldr	r5, [pc, #524]	; (8000d0c <HAL_RCC_OscConfig+0x288>)
        tickstart = HAL_GetTick();
 8000b00:	4606      	mov	r6, r0
        while(__HAL_RCC_GET_FLAG(RCC_FLAG_HSERDY) == RESET)
 8000b02:	682b      	ldr	r3, [r5, #0]
 8000b04:	039f      	lsls	r7, r3, #14
 8000b06:	d4c8      	bmi.n	8000a9a <HAL_RCC_OscConfig+0x16>
          if((HAL_GetTick() - tickstart ) > HSE_TIMEOUT_VALUE)
 8000b08:	f7ff fbbe 	bl	8000288 <HAL_GetTick>
 8000b0c:	1b80      	subs	r0, r0, r6
 8000b0e:	2864      	cmp	r0, #100	; 0x64
 8000b10:	d9f7      	bls.n	8000b02 <HAL_RCC_OscConfig+0x7e>
            return HAL_TIMEOUT;
 8000b12:	2003      	movs	r0, #3
 8000b14:	e7bb      	b.n	8000a8e <HAL_RCC_OscConfig+0xa>
      __HAL_RCC_HSE_CONFIG(RCC_OscInitStruct->HSEState);
 8000b16:	b99b      	cbnz	r3, 8000b40 <HAL_RCC_OscConfig+0xbc>
 8000b18:	682b      	ldr	r3, [r5, #0]
 8000b1a:	f423 3380 	bic.w	r3, r3, #65536	; 0x10000
 8000b1e:	602b      	str	r3, [r5, #0]
 8000b20:	682b      	ldr	r3, [r5, #0]
 8000b22:	f423 2380 	bic.w	r3, r3, #262144	; 0x40000
 8000b26:	602b      	str	r3, [r5, #0]
        tickstart = HAL_GetTick();
 8000b28:	f7ff fbae 	bl	8000288 <HAL_GetTick>
 8000b2c:	4606      	mov	r6, r0
        while(__HAL_RCC_GET_FLAG(RCC_FLAG_HSERDY) != RESET)
 8000b2e:	682b      	ldr	r3, [r5, #0]
 8000b30:	0398      	lsls	r0, r3, #14
 8000b32:	d5b2      	bpl.n	8000a9a <HAL_RCC_OscConfig+0x16>
           if((HAL_GetTick() - tickstart ) > HSE_TIMEOUT_VALUE)
 8000b34:	f7ff fba8 	bl	8000288 <HAL_GetTick>
 8000b38:	1b80      	subs	r0, r0, r6
 8000b3a:	2864      	cmp	r0, #100	; 0x64
 8000b3c:	d9f7      	bls.n	8000b2e <HAL_RCC_OscConfig+0xaa>
 8000b3e:	e7e8      	b.n	8000b12 <HAL_RCC_OscConfig+0x8e>
      __HAL_RCC_HSE_CONFIG(RCC_OscInitStruct->HSEState);
 8000b40:	f5b3 2fa0 	cmp.w	r3, #327680	; 0x50000
 8000b44:	682b      	ldr	r3, [r5, #0]
 8000b46:	d103      	bne.n	8000b50 <HAL_RCC_OscConfig+0xcc>
 8000b48:	f443 2380 	orr.w	r3, r3, #262144	; 0x40000
 8000b4c:	602b      	str	r3, [r5, #0]
 8000b4e:	e7d0      	b.n	8000af2 <HAL_RCC_OscConfig+0x6e>
 8000b50:	f423 3380 	bic.w	r3, r3, #65536	; 0x10000
 8000b54:	602b      	str	r3, [r5, #0]
 8000b56:	682b      	ldr	r3, [r5, #0]
 8000b58:	f423 2380 	bic.w	r3, r3, #262144	; 0x40000
 8000b5c:	e7cc      	b.n	8000af8 <HAL_RCC_OscConfig+0x74>
    if((__HAL_RCC_GET_SYSCLK_SOURCE() == RCC_SYSCLKSOURCE_STATUS_HSI)
 8000b5e:	4b6b      	ldr	r3, [pc, #428]	; (8000d0c <HAL_RCC_OscConfig+0x288>)
 8000b60:	689a      	ldr	r2, [r3, #8]
 8000b62:	f012 0f0c 	tst.w	r2, #12
 8000b66:	d007      	beq.n	8000b78 <HAL_RCC_OscConfig+0xf4>
       || ((__HAL_RCC_GET_SYSCLK_SOURCE() == RCC_SYSCLKSOURCE_STATUS_PLLCLK) && ((RCC->PLLCFGR & RCC_PLLCFGR_PLLSRC) == RCC_PLLCFGR_PLLSRC_HSI)))
 8000b68:	689a      	ldr	r2, [r3, #8]
 8000b6a:	f002 020c 	and.w	r2, r2, #12
 8000b6e:	2a08      	cmp	r2, #8
 8000b70:	d111      	bne.n	8000b96 <HAL_RCC_OscConfig+0x112>
 8000b72:	685b      	ldr	r3, [r3, #4]
 8000b74:	0259      	lsls	r1, r3, #9
 8000b76:	d40e      	bmi.n	8000b96 <HAL_RCC_OscConfig+0x112>
      if((__HAL_RCC_GET_FLAG(RCC_FLAG_HSIRDY) != RESET) && (RCC_OscInitStruct->HSIState != RCC_HSI_ON))
 8000b78:	4b64      	ldr	r3, [pc, #400]	; (8000d0c <HAL_RCC_OscConfig+0x288>)
 8000b7a:	681a      	ldr	r2, [r3, #0]
 8000b7c:	0792      	lsls	r2, r2, #30
 8000b7e:	d502      	bpl.n	8000b86 <HAL_RCC_OscConfig+0x102>
 8000b80:	68e2      	ldr	r2, [r4, #12]
 8000b82:	2a01      	cmp	r2, #1
 8000b84:	d182      	bne.n	8000a8c <HAL_RCC_OscConfig+0x8>
        __HAL_RCC_HSI_CALIBRATIONVALUE_ADJUST(RCC_OscInitStruct->HSICalibrationValue);
 8000b86:	681a      	ldr	r2, [r3, #0]
 8000b88:	6921      	ldr	r1, [r4, #16]
 8000b8a:	f022 02f8 	bic.w	r2, r2, #248	; 0xf8
 8000b8e:	ea42 02c1 	orr.w	r2, r2, r1, lsl #3
 8000b92:	601a      	str	r2, [r3, #0]
      if((__HAL_RCC_GET_FLAG(RCC_FLAG_HSIRDY) != RESET) && (RCC_OscInitStruct->HSIState != RCC_HSI_ON))
 8000b94:	e784      	b.n	8000aa0 <HAL_RCC_OscConfig+0x1c>
      if((RCC_OscInitStruct->HSIState)!= RCC_HSI_OFF)
 8000b96:	68e3      	ldr	r3, [r4, #12]
 8000b98:	4d5c      	ldr	r5, [pc, #368]	; (8000d0c <HAL_RCC_OscConfig+0x288>)
 8000b9a:	b1bb      	cbz	r3, 8000bcc <HAL_RCC_OscConfig+0x148>
        __HAL_RCC_HSI_ENABLE();
 8000b9c:	682b      	ldr	r3, [r5, #0]
 8000b9e:	f043 0301 	orr.w	r3, r3, #1
 8000ba2:	602b      	str	r3, [r5, #0]
        tickstart = HAL_GetTick();
 8000ba4:	f7ff fb70 	bl	8000288 <HAL_GetTick>
 8000ba8:	4606      	mov	r6, r0
        while(__HAL_RCC_GET_FLAG(RCC_FLAG_HSIRDY) == RESET)
 8000baa:	682b      	ldr	r3, [r5, #0]
 8000bac:	079f      	lsls	r7, r3, #30
 8000bae:	d507      	bpl.n	8000bc0 <HAL_RCC_OscConfig+0x13c>
        __HAL_RCC_HSI_CALIBRATIONVALUE_ADJUST(RCC_OscInitStruct->HSICalibrationValue);
 8000bb0:	682b      	ldr	r3, [r5, #0]
 8000bb2:	6922      	ldr	r2, [r4, #16]
 8000bb4:	f023 03f8 	bic.w	r3, r3, #248	; 0xf8
 8000bb8:	ea43 03c2 	orr.w	r3, r3, r2, lsl #3
 8000bbc:	602b      	str	r3, [r5, #0]
 8000bbe:	e76f      	b.n	8000aa0 <HAL_RCC_OscConfig+0x1c>
          if((HAL_GetTick() - tickstart ) > HSI_TIMEOUT_VALUE)
 8000bc0:	f7ff fb62 	bl	8000288 <HAL_GetTick>
 8000bc4:	1b80      	subs	r0, r0, r6
 8000bc6:	2802      	cmp	r0, #2
 8000bc8:	d9ef      	bls.n	8000baa <HAL_RCC_OscConfig+0x126>
 8000bca:	e7a2      	b.n	8000b12 <HAL_RCC_OscConfig+0x8e>
        __HAL_RCC_HSI_DISABLE();
 8000bcc:	682b      	ldr	r3, [r5, #0]
 8000bce:	f023 0301 	bic.w	r3, r3, #1
 8000bd2:	602b      	str	r3, [r5, #0]
        tickstart = HAL_GetTick();
 8000bd4:	f7ff fb58 	bl	8000288 <HAL_GetTick>
 8000bd8:	4606      	mov	r6, r0
        while(__HAL_RCC_GET_FLAG(RCC_FLAG_HSIRDY) != RESET)
 8000bda:	682b      	ldr	r3, [r5, #0]
 8000bdc:	0798      	lsls	r0, r3, #30
 8000bde:	f57f af5f 	bpl.w	8000aa0 <HAL_RCC_OscConfig+0x1c>
          if((HAL_GetTick() - tickstart ) > HSI_TIMEOUT_VALUE)
 8000be2:	f7ff fb51 	bl	8000288 <HAL_GetTick>
 8000be6:	1b80      	subs	r0, r0, r6
 8000be8:	2802      	cmp	r0, #2
 8000bea:	d9f6      	bls.n	8000bda <HAL_RCC_OscConfig+0x156>
 8000bec:	e791      	b.n	8000b12 <HAL_RCC_OscConfig+0x8e>
    if((RCC_OscInitStruct->LSIState)!= RCC_LSI_OFF)
 8000bee:	6963      	ldr	r3, [r4, #20]
 8000bf0:	4d46      	ldr	r5, [pc, #280]	; (8000d0c <HAL_RCC_OscConfig+0x288>)
 8000bf2:	b183      	cbz	r3, 8000c16 <HAL_RCC_OscConfig+0x192>
      __HAL_RCC_LSI_ENABLE();
 8000bf4:	6f6b      	ldr	r3, [r5, #116]	; 0x74
 8000bf6:	f043 0301 	orr.w	r3, r3, #1
 8000bfa:	676b      	str	r3, [r5, #116]	; 0x74
      tickstart = HAL_GetTick();
 8000bfc:	f7ff fb44 	bl	8000288 <HAL_GetTick>
 8000c00:	4606      	mov	r6, r0
      while(__HAL_RCC_GET_FLAG(RCC_FLAG_LSIRDY) == RESET)
 8000c02:	6f6b      	ldr	r3, [r5, #116]	; 0x74
 8000c04:	079b      	lsls	r3, r3, #30
 8000c06:	f53f af4f 	bmi.w	8000aa8 <HAL_RCC_OscConfig+0x24>
        if((HAL_GetTick() - tickstart ) > LSI_TIMEOUT_VALUE)
 8000c0a:	f7ff fb3d 	bl	8000288 <HAL_GetTick>
 8000c0e:	1b80      	subs	r0, r0, r6
 8000c10:	2802      	cmp	r0, #2
 8000c12:	d9f6      	bls.n	8000c02 <HAL_RCC_OscConfig+0x17e>
 8000c14:	e77d      	b.n	8000b12 <HAL_RCC_OscConfig+0x8e>
      __HAL_RCC_LSI_DISABLE();
 8000c16:	6f6b      	ldr	r3, [r5, #116]	; 0x74
 8000c18:	f023 0301 	bic.w	r3, r3, #1
 8000c1c:	676b      	str	r3, [r5, #116]	; 0x74
      tickstart = HAL_GetTick();
 8000c1e:	f7ff fb33 	bl	8000288 <HAL_GetTick>
 8000c22:	4606      	mov	r6, r0
      while(__HAL_RCC_GET_FLAG(RCC_FLAG_LSIRDY) != RESET)
 8000c24:	6f6b      	ldr	r3, [r5, #116]	; 0x74
 8000c26:	079f      	lsls	r7, r3, #30
 8000c28:	f57f af3e 	bpl.w	8000aa8 <HAL_RCC_OscConfig+0x24>
        if((HAL_GetTick() - tickstart ) > LSI_TIMEOUT_VALUE)
 8000c2c:	f7ff fb2c 	bl	8000288 <HAL_GetTick>
 8000c30:	1b80      	subs	r0, r0, r6
 8000c32:	2802      	cmp	r0, #2
 8000c34:	d9f6      	bls.n	8000c24 <HAL_RCC_OscConfig+0x1a0>
 8000c36:	e76c      	b.n	8000b12 <HAL_RCC_OscConfig+0x8e>
    if(__HAL_RCC_PWR_IS_CLK_DISABLED())
 8000c38:	4b34      	ldr	r3, [pc, #208]	; (8000d0c <HAL_RCC_OscConfig+0x288>)
 8000c3a:	6c1a      	ldr	r2, [r3, #64]	; 0x40
 8000c3c:	00d0      	lsls	r0, r2, #3
 8000c3e:	d427      	bmi.n	8000c90 <HAL_RCC_OscConfig+0x20c>
      __HAL_RCC_PWR_CLK_ENABLE();
 8000c40:	6c1a      	ldr	r2, [r3, #64]	; 0x40
      pwrclkchanged = SET;
 8000c42:	2601      	movs	r6, #1
      __HAL_RCC_PWR_CLK_ENABLE();
 8000c44:	f042 5280 	orr.w	r2, r2, #268435456	; 0x10000000
 8000c48:	641a      	str	r2, [r3, #64]	; 0x40
 8000c4a:	6c1b      	ldr	r3, [r3, #64]	; 0x40
 8000c4c:	f003 5380 	and.w	r3, r3, #268435456	; 0x10000000
 8000c50:	9301      	str	r3, [sp, #4]
 8000c52:	9b01      	ldr	r3, [sp, #4]
    if(HAL_IS_BIT_CLR(PWR->CR1, PWR_CR1_DBP))
 8000c54:	4d2e      	ldr	r5, [pc, #184]	; (8000d10 <HAL_RCC_OscConfig+0x28c>)
 8000c56:	682b      	ldr	r3, [r5, #0]
 8000c58:	05d9      	lsls	r1, r3, #23
 8000c5a:	d51b      	bpl.n	8000c94 <HAL_RCC_OscConfig+0x210>
    __HAL_RCC_LSE_CONFIG(RCC_OscInitStruct->LSEState);
 8000c5c:	68a3      	ldr	r3, [r4, #8]
 8000c5e:	4d2b      	ldr	r5, [pc, #172]	; (8000d0c <HAL_RCC_OscConfig+0x288>)
 8000c60:	2b01      	cmp	r3, #1
 8000c62:	d127      	bne.n	8000cb4 <HAL_RCC_OscConfig+0x230>
 8000c64:	6f2b      	ldr	r3, [r5, #112]	; 0x70
 8000c66:	f043 0301 	orr.w	r3, r3, #1
 8000c6a:	672b      	str	r3, [r5, #112]	; 0x70
        if((HAL_GetTick() - tickstart ) > RCC_LSE_TIMEOUT_VALUE)
 8000c6c:	f241 3588 	movw	r5, #5000	; 0x1388
      tickstart = HAL_GetTick();
 8000c70:	f7ff fb0a 	bl	8000288 <HAL_GetTick>
      while(__HAL_RCC_GET_FLAG(RCC_FLAG_LSERDY) == RESET)
 8000c74:	4f25      	ldr	r7, [pc, #148]	; (8000d0c <HAL_RCC_OscConfig+0x288>)
      tickstart = HAL_GetTick();
 8000c76:	4680      	mov	r8, r0
      while(__HAL_RCC_GET_FLAG(RCC_FLAG_LSERDY) == RESET)
 8000c78:	6f3b      	ldr	r3, [r7, #112]	; 0x70
 8000c7a:	079b      	lsls	r3, r3, #30
 8000c7c:	d53f      	bpl.n	8000cfe <HAL_RCC_OscConfig+0x27a>
    if(pwrclkchanged == SET)
 8000c7e:	2e00      	cmp	r6, #0
 8000c80:	f43f af16 	beq.w	8000ab0 <HAL_RCC_OscConfig+0x2c>
      __HAL_RCC_PWR_CLK_DISABLE();
 8000c84:	4a21      	ldr	r2, [pc, #132]	; (8000d0c <HAL_RCC_OscConfig+0x288>)
 8000c86:	6c13      	ldr	r3, [r2, #64]	; 0x40
 8000c88:	f023 5380 	bic.w	r3, r3, #268435456	; 0x10000000
 8000c8c:	6413      	str	r3, [r2, #64]	; 0x40
 8000c8e:	e70f      	b.n	8000ab0 <HAL_RCC_OscConfig+0x2c>
  FlagStatus pwrclkchanged = RESET;
 8000c90:	2600      	movs	r6, #0
 8000c92:	e7df      	b.n	8000c54 <HAL_RCC_OscConfig+0x1d0>
      PWR->CR1 |= PWR_CR1_DBP;
 8000c94:	682b      	ldr	r3, [r5, #0]
 8000c96:	f443 7380 	orr.w	r3, r3, #256	; 0x100
 8000c9a:	602b      	str	r3, [r5, #0]
      tickstart = HAL_GetTick();
 8000c9c:	f7ff faf4 	bl	8000288 <HAL_GetTick>
 8000ca0:	4607      	mov	r7, r0
      while(HAL_IS_BIT_CLR(PWR->CR1, PWR_CR1_DBP))
 8000ca2:	682b      	ldr	r3, [r5, #0]
 8000ca4:	05da      	lsls	r2, r3, #23
 8000ca6:	d4d9      	bmi.n	8000c5c <HAL_RCC_OscConfig+0x1d8>
        if((HAL_GetTick() - tickstart ) > RCC_DBP_TIMEOUT_VALUE)
 8000ca8:	f7ff faee 	bl	8000288 <HAL_GetTick>
 8000cac:	1bc0      	subs	r0, r0, r7
 8000cae:	2864      	cmp	r0, #100	; 0x64
 8000cb0:	d9f7      	bls.n	8000ca2 <HAL_RCC_OscConfig+0x21e>
 8000cb2:	e72e      	b.n	8000b12 <HAL_RCC_OscConfig+0x8e>
    __HAL_RCC_LSE_CONFIG(RCC_OscInitStruct->LSEState);
 8000cb4:	b9ab      	cbnz	r3, 8000ce2 <HAL_RCC_OscConfig+0x25e>
 8000cb6:	6f2b      	ldr	r3, [r5, #112]	; 0x70
        if((HAL_GetTick() - tickstart ) > RCC_LSE_TIMEOUT_VALUE)
 8000cb8:	f241 3888 	movw	r8, #5000	; 0x1388
    __HAL_RCC_LSE_CONFIG(RCC_OscInitStruct->LSEState);
 8000cbc:	f023 0301 	bic.w	r3, r3, #1
 8000cc0:	672b      	str	r3, [r5, #112]	; 0x70
 8000cc2:	6f2b      	ldr	r3, [r5, #112]	; 0x70
 8000cc4:	f023 0304 	bic.w	r3, r3, #4
 8000cc8:	672b      	str	r3, [r5, #112]	; 0x70
      tickstart = HAL_GetTick();
 8000cca:	f7ff fadd 	bl	8000288 <HAL_GetTick>
 8000cce:	4607      	mov	r7, r0
      while(__HAL_RCC_GET_FLAG(RCC_FLAG_LSERDY) != RESET)
 8000cd0:	6f2b      	ldr	r3, [r5, #112]	; 0x70
 8000cd2:	0798      	lsls	r0, r3, #30
 8000cd4:	d5d3      	bpl.n	8000c7e <HAL_RCC_OscConfig+0x1fa>
        if((HAL_GetTick() - tickstart ) > RCC_LSE_TIMEOUT_VALUE)
 8000cd6:	f7ff fad7 	bl	8000288 <HAL_GetTick>
 8000cda:	1bc0      	subs	r0, r0, r7
 8000cdc:	4540      	cmp	r0, r8
 8000cde:	d9f7      	bls.n	8000cd0 <HAL_RCC_OscConfig+0x24c>
 8000ce0:	e717      	b.n	8000b12 <HAL_RCC_OscConfig+0x8e>
    __HAL_RCC_LSE_CONFIG(RCC_OscInitStruct->LSEState);
 8000ce2:	2b05      	cmp	r3, #5
 8000ce4:	6f2b      	ldr	r3, [r5, #112]	; 0x70
 8000ce6:	d103      	bne.n	8000cf0 <HAL_RCC_OscConfig+0x26c>
 8000ce8:	f043 0304 	orr.w	r3, r3, #4
 8000cec:	672b      	str	r3, [r5, #112]	; 0x70
 8000cee:	e7b9      	b.n	8000c64 <HAL_RCC_OscConfig+0x1e0>
 8000cf0:	f023 0301 	bic.w	r3, r3, #1
 8000cf4:	672b      	str	r3, [r5, #112]	; 0x70
 8000cf6:	6f2b      	ldr	r3, [r5, #112]	; 0x70
 8000cf8:	f023 0304 	bic.w	r3, r3, #4
 8000cfc:	e7b5      	b.n	8000c6a <HAL_RCC_OscConfig+0x1e6>
        if((HAL_GetTick() - tickstart ) > RCC_LSE_TIMEOUT_VALUE)
 8000cfe:	f7ff fac3 	bl	8000288 <HAL_GetTick>
 8000d02:	eba0 0008 	sub.w	r0, r0, r8
 8000d06:	42a8      	cmp	r0, r5
 8000d08:	d9b6      	bls.n	8000c78 <HAL_RCC_OscConfig+0x1f4>
 8000d0a:	e702      	b.n	8000b12 <HAL_RCC_OscConfig+0x8e>
 8000d0c:	40023800 	.word	0x40023800
 8000d10:	40007000 	.word	0x40007000
    if(__HAL_RCC_GET_SYSCLK_SOURCE() != RCC_SYSCLKSOURCE_STATUS_PLLCLK)
 8000d14:	4d24      	ldr	r5, [pc, #144]	; (8000da8 <HAL_RCC_OscConfig+0x324>)
 8000d16:	68ab      	ldr	r3, [r5, #8]
 8000d18:	f003 030c 	and.w	r3, r3, #12
 8000d1c:	2b08      	cmp	r3, #8
 8000d1e:	f43f aeb5 	beq.w	8000a8c <HAL_RCC_OscConfig+0x8>
        __HAL_RCC_PLL_DISABLE();
 8000d22:	682b      	ldr	r3, [r5, #0]
      if((RCC_OscInitStruct->PLL.PLLState) == RCC_PLL_ON)
 8000d24:	2a02      	cmp	r2, #2
        __HAL_RCC_PLL_DISABLE();
 8000d26:	f023 7380 	bic.w	r3, r3, #16777216	; 0x1000000
 8000d2a:	602b      	str	r3, [r5, #0]
      if((RCC_OscInitStruct->PLL.PLLState) == RCC_PLL_ON)
 8000d2c:	d12f      	bne.n	8000d8e <HAL_RCC_OscConfig+0x30a>
        tickstart = HAL_GetTick();
 8000d2e:	f7ff faab 	bl	8000288 <HAL_GetTick>
 8000d32:	4606      	mov	r6, r0
        while(__HAL_RCC_GET_FLAG(RCC_FLAG_PLLRDY) != RESET)
 8000d34:	682b      	ldr	r3, [r5, #0]
 8000d36:	0199      	lsls	r1, r3, #6
 8000d38:	d423      	bmi.n	8000d82 <HAL_RCC_OscConfig+0x2fe>
        __HAL_RCC_PLL_CONFIG(RCC_OscInitStruct->PLL.PLLSource,
 8000d3a:	6a22      	ldr	r2, [r4, #32]
 8000d3c:	69e3      	ldr	r3, [r4, #28]
 8000d3e:	4313      	orrs	r3, r2
 8000d40:	6a62      	ldr	r2, [r4, #36]	; 0x24
 8000d42:	ea43 1382 	orr.w	r3, r3, r2, lsl #6
 8000d46:	6ae2      	ldr	r2, [r4, #44]	; 0x2c
 8000d48:	ea43 6302 	orr.w	r3, r3, r2, lsl #24
 8000d4c:	6b22      	ldr	r2, [r4, #48]	; 0x30
 8000d4e:	ea43 7302 	orr.w	r3, r3, r2, lsl #28
 8000d52:	6aa2      	ldr	r2, [r4, #40]	; 0x28
        while(__HAL_RCC_GET_FLAG(RCC_FLAG_PLLRDY) == RESET)
 8000d54:	4c14      	ldr	r4, [pc, #80]	; (8000da8 <HAL_RCC_OscConfig+0x324>)
        __HAL_RCC_PLL_CONFIG(RCC_OscInitStruct->PLL.PLLSource,
 8000d56:	0852      	lsrs	r2, r2, #1
 8000d58:	3a01      	subs	r2, #1
 8000d5a:	ea43 4302 	orr.w	r3, r3, r2, lsl #16
 8000d5e:	606b      	str	r3, [r5, #4]
        __HAL_RCC_PLL_ENABLE();
 8000d60:	682b      	ldr	r3, [r5, #0]
 8000d62:	f043 7380 	orr.w	r3, r3, #16777216	; 0x1000000
 8000d66:	602b      	str	r3, [r5, #0]
        tickstart = HAL_GetTick();
 8000d68:	f7ff fa8e 	bl	8000288 <HAL_GetTick>
 8000d6c:	4605      	mov	r5, r0
        while(__HAL_RCC_GET_FLAG(RCC_FLAG_PLLRDY) == RESET)
 8000d6e:	6823      	ldr	r3, [r4, #0]
 8000d70:	019a      	lsls	r2, r3, #6
 8000d72:	f53f aea1 	bmi.w	8000ab8 <HAL_RCC_OscConfig+0x34>
          if((HAL_GetTick() - tickstart ) > PLL_TIMEOUT_VALUE)
 8000d76:	f7ff fa87 	bl	8000288 <HAL_GetTick>
 8000d7a:	1b40      	subs	r0, r0, r5
 8000d7c:	2802      	cmp	r0, #2
 8000d7e:	d9f6      	bls.n	8000d6e <HAL_RCC_OscConfig+0x2ea>
 8000d80:	e6c7      	b.n	8000b12 <HAL_RCC_OscConfig+0x8e>
          if((HAL_GetTick() - tickstart ) > PLL_TIMEOUT_VALUE)
 8000d82:	f7ff fa81 	bl	8000288 <HAL_GetTick>
 8000d86:	1b80      	subs	r0, r0, r6
 8000d88:	2802      	cmp	r0, #2
 8000d8a:	d9d3      	bls.n	8000d34 <HAL_RCC_OscConfig+0x2b0>
 8000d8c:	e6c1      	b.n	8000b12 <HAL_RCC_OscConfig+0x8e>
        tickstart = HAL_GetTick();
 8000d8e:	f7ff fa7b 	bl	8000288 <HAL_GetTick>
 8000d92:	4604      	mov	r4, r0
        while(__HAL_RCC_GET_FLAG(RCC_FLAG_PLLRDY) != RESET)
 8000d94:	682b      	ldr	r3, [r5, #0]
 8000d96:	019b      	lsls	r3, r3, #6
 8000d98:	f57f ae8e 	bpl.w	8000ab8 <HAL_RCC_OscConfig+0x34>
          if((HAL_GetTick() - tickstart ) > PLL_TIMEOUT_VALUE)
 8000d9c:	f7ff fa74 	bl	8000288 <HAL_GetTick>
 8000da0:	1b00      	subs	r0, r0, r4
 8000da2:	2802      	cmp	r0, #2
 8000da4:	d9f6      	bls.n	8000d94 <HAL_RCC_OscConfig+0x310>
 8000da6:	e6b4      	b.n	8000b12 <HAL_RCC_OscConfig+0x8e>
 8000da8:	40023800 	.word	0x40023800

08000dac <HAL_RCC_GetSysClockFreq>:
{
  uint32_t pllm = 0, pllvco = 0, pllp = 0;
  uint32_t sysclockfreq = 0;

  /* Get SYSCLK source -------------------------------------------------------*/
  switch (RCC->CFGR & RCC_CFGR_SWS)
 8000dac:	4b11      	ldr	r3, [pc, #68]	; (8000df4 <HAL_RCC_GetSysClockFreq+0x48>)
 8000dae:	689a      	ldr	r2, [r3, #8]
 8000db0:	f002 020c 	and.w	r2, r2, #12
 8000db4:	2a04      	cmp	r2, #4
 8000db6:	d003      	beq.n	8000dc0 <HAL_RCC_GetSysClockFreq+0x14>
 8000db8:	2a08      	cmp	r2, #8
 8000dba:	d003      	beq.n	8000dc4 <HAL_RCC_GetSysClockFreq+0x18>
  {
    case RCC_SYSCLKSOURCE_STATUS_HSI:  /* HSI used as system clock source */
    {
      sysclockfreq = HSI_VALUE;
 8000dbc:	480e      	ldr	r0, [pc, #56]	; (8000df8 <HAL_RCC_GetSysClockFreq+0x4c>)
      sysclockfreq = HSI_VALUE;
      break;
    }
  }
  return sysclockfreq;
}
 8000dbe:	4770      	bx	lr
      sysclockfreq = HSE_VALUE;
 8000dc0:	480e      	ldr	r0, [pc, #56]	; (8000dfc <HAL_RCC_GetSysClockFreq+0x50>)
 8000dc2:	4770      	bx	lr
      pllm = RCC->PLLCFGR & RCC_PLLCFGR_PLLM;
 8000dc4:	685a      	ldr	r2, [r3, #4]
      if (__HAL_RCC_GET_PLL_OSCSOURCE() != RCC_PLLCFGR_PLLSRC_HSI)
 8000dc6:	6859      	ldr	r1, [r3, #4]
      pllm = RCC->PLLCFGR & RCC_PLLCFGR_PLLM;
 8000dc8:	f002 023f 	and.w	r2, r2, #63	; 0x3f
        pllvco = ((HSE_VALUE / pllm) * ((RCC->PLLCFGR & RCC_PLLCFGR_PLLN) >> RCC_PLLCFGR_PLLN_Pos));
 8000dcc:	685b      	ldr	r3, [r3, #4]
      if (__HAL_RCC_GET_PLL_OSCSOURCE() != RCC_PLLCFGR_PLLSRC_HSI)
 8000dce:	0249      	lsls	r1, r1, #9
        pllvco = ((HSE_VALUE / pllm) * ((RCC->PLLCFGR & RCC_PLLCFGR_PLLN) >> RCC_PLLCFGR_PLLN_Pos));
 8000dd0:	f3c3 1388 	ubfx	r3, r3, #6, #9
 8000dd4:	bf4c      	ite	mi
 8000dd6:	4809      	ldrmi	r0, [pc, #36]	; (8000dfc <HAL_RCC_GetSysClockFreq+0x50>)
        pllvco = ((HSI_VALUE / pllm) * ((RCC->PLLCFGR & RCC_PLLCFGR_PLLN) >> RCC_PLLCFGR_PLLN_Pos));
 8000dd8:	4807      	ldrpl	r0, [pc, #28]	; (8000df8 <HAL_RCC_GetSysClockFreq+0x4c>)
 8000dda:	fbb0 f0f2 	udiv	r0, r0, r2
 8000dde:	4358      	muls	r0, r3
      pllp = ((((RCC->PLLCFGR & RCC_PLLCFGR_PLLP) >> RCC_PLLCFGR_PLLP_Pos) + 1 ) *2);
 8000de0:	4b04      	ldr	r3, [pc, #16]	; (8000df4 <HAL_RCC_GetSysClockFreq+0x48>)
 8000de2:	685b      	ldr	r3, [r3, #4]
 8000de4:	f3c3 4301 	ubfx	r3, r3, #16, #2
 8000de8:	3301      	adds	r3, #1
 8000dea:	005b      	lsls	r3, r3, #1
      sysclockfreq = pllvco/pllp;
 8000dec:	fbb0 f0f3 	udiv	r0, r0, r3
 8000df0:	4770      	bx	lr
 8000df2:	bf00      	nop
 8000df4:	40023800 	.word	0x40023800
 8000df8:	00f42400 	.word	0x00f42400
 8000dfc:	017d7840 	.word	0x017d7840

08000e00 <HAL_RCC_ClockConfig>:
{
 8000e00:	e92d 41f0 	stmdb	sp!, {r4, r5, r6, r7, r8, lr}
 8000e04:	460d      	mov	r5, r1
  if(RCC_ClkInitStruct == NULL)
 8000e06:	4604      	mov	r4, r0
 8000e08:	b910      	cbnz	r0, 8000e10 <HAL_RCC_ClockConfig+0x10>
    return HAL_ERROR;
 8000e0a:	2001      	movs	r0, #1
 8000e0c:	e8bd 81f0 	ldmia.w	sp!, {r4, r5, r6, r7, r8, pc}
  if(FLatency > __HAL_FLASH_GET_LATENCY())
 8000e10:	4a3f      	ldr	r2, [pc, #252]	; (8000f10 <HAL_RCC_ClockConfig+0x110>)
 8000e12:	6813      	ldr	r3, [r2, #0]
 8000e14:	f003 030f 	and.w	r3, r3, #15
 8000e18:	428b      	cmp	r3, r1
 8000e1a:	d328      	bcc.n	8000e6e <HAL_RCC_ClockConfig+0x6e>
  if(((RCC_ClkInitStruct->ClockType) & RCC_CLOCKTYPE_HCLK) == RCC_CLOCKTYPE_HCLK)
 8000e1c:	6822      	ldr	r2, [r4, #0]
 8000e1e:	0796      	lsls	r6, r2, #30
 8000e20:	d430      	bmi.n	8000e84 <HAL_RCC_ClockConfig+0x84>
  if(((RCC_ClkInitStruct->ClockType) & RCC_CLOCKTYPE_SYSCLK) == RCC_CLOCKTYPE_SYSCLK)
 8000e22:	07d0      	lsls	r0, r2, #31
 8000e24:	d436      	bmi.n	8000e94 <HAL_RCC_ClockConfig+0x94>
  if(FLatency < __HAL_FLASH_GET_LATENCY())
 8000e26:	4a3a      	ldr	r2, [pc, #232]	; (8000f10 <HAL_RCC_ClockConfig+0x110>)
 8000e28:	6813      	ldr	r3, [r2, #0]
 8000e2a:	f003 030f 	and.w	r3, r3, #15
 8000e2e:	429d      	cmp	r5, r3
 8000e30:	d35a      	bcc.n	8000ee8 <HAL_RCC_ClockConfig+0xe8>
  if(((RCC_ClkInitStruct->ClockType) & RCC_CLOCKTYPE_PCLK1) == RCC_CLOCKTYPE_PCLK1)
 8000e32:	6822      	ldr	r2, [r4, #0]
 8000e34:	0751      	lsls	r1, r2, #29
 8000e36:	d462      	bmi.n	8000efe <HAL_RCC_ClockConfig+0xfe>
  if(((RCC_ClkInitStruct->ClockType) & RCC_CLOCKTYPE_PCLK2) == RCC_CLOCKTYPE_PCLK2)
 8000e38:	0713      	lsls	r3, r2, #28
 8000e3a:	d507      	bpl.n	8000e4c <HAL_RCC_ClockConfig+0x4c>
    MODIFY_REG(RCC->CFGR, RCC_CFGR_PPRE2, ((RCC_ClkInitStruct->APB2CLKDivider) << 3));
 8000e3c:	4a35      	ldr	r2, [pc, #212]	; (8000f14 <HAL_RCC_ClockConfig+0x114>)
 8000e3e:	6921      	ldr	r1, [r4, #16]
 8000e40:	6893      	ldr	r3, [r2, #8]
 8000e42:	f423 4360 	bic.w	r3, r3, #57344	; 0xe000
 8000e46:	ea43 03c1 	orr.w	r3, r3, r1, lsl #3
 8000e4a:	6093      	str	r3, [r2, #8]
  SystemCoreClock = HAL_RCC_GetSysClockFreq() >> AHBPrescTable[(RCC->CFGR & RCC_CFGR_HPRE)>> RCC_CFGR_HPRE_Pos];
 8000e4c:	f7ff ffae 	bl	8000dac <HAL_RCC_GetSysClockFreq>
 8000e50:	4b30      	ldr	r3, [pc, #192]	; (8000f14 <HAL_RCC_ClockConfig+0x114>)
 8000e52:	4a31      	ldr	r2, [pc, #196]	; (8000f18 <HAL_RCC_ClockConfig+0x118>)
 8000e54:	689b      	ldr	r3, [r3, #8]
 8000e56:	f3c3 1303 	ubfx	r3, r3, #4, #4
 8000e5a:	5cd3      	ldrb	r3, [r2, r3]
 8000e5c:	40d8      	lsrs	r0, r3
 8000e5e:	4b2f      	ldr	r3, [pc, #188]	; (8000f1c <HAL_RCC_ClockConfig+0x11c>)
 8000e60:	6018      	str	r0, [r3, #0]
  HAL_InitTick (TICK_INT_PRIORITY);
 8000e62:	2000      	movs	r0, #0
 8000e64:	f7ff f9e8 	bl	8000238 <HAL_InitTick>
  return HAL_OK;
 8000e68:	2000      	movs	r0, #0
 8000e6a:	e8bd 81f0 	ldmia.w	sp!, {r4, r5, r6, r7, r8, pc}
    __HAL_FLASH_SET_LATENCY(FLatency);
 8000e6e:	6813      	ldr	r3, [r2, #0]
 8000e70:	f023 030f 	bic.w	r3, r3, #15
 8000e74:	430b      	orrs	r3, r1
 8000e76:	6013      	str	r3, [r2, #0]
    if(__HAL_FLASH_GET_LATENCY() != FLatency)
 8000e78:	6813      	ldr	r3, [r2, #0]
 8000e7a:	f003 030f 	and.w	r3, r3, #15
 8000e7e:	4299      	cmp	r1, r3
 8000e80:	d1c3      	bne.n	8000e0a <HAL_RCC_ClockConfig+0xa>
 8000e82:	e7cb      	b.n	8000e1c <HAL_RCC_ClockConfig+0x1c>
    MODIFY_REG(RCC->CFGR, RCC_CFGR_HPRE, RCC_ClkInitStruct->AHBCLKDivider);
 8000e84:	4923      	ldr	r1, [pc, #140]	; (8000f14 <HAL_RCC_ClockConfig+0x114>)
 8000e86:	68a0      	ldr	r0, [r4, #8]
 8000e88:	688b      	ldr	r3, [r1, #8]
 8000e8a:	f023 03f0 	bic.w	r3, r3, #240	; 0xf0
 8000e8e:	4303      	orrs	r3, r0
 8000e90:	608b      	str	r3, [r1, #8]
 8000e92:	e7c6      	b.n	8000e22 <HAL_RCC_ClockConfig+0x22>
    if(RCC_ClkInitStruct->SYSCLKSource == RCC_SYSCLKSOURCE_HSE)
 8000e94:	6861      	ldr	r1, [r4, #4]
 8000e96:	4b1f      	ldr	r3, [pc, #124]	; (8000f14 <HAL_RCC_ClockConfig+0x114>)
 8000e98:	2901      	cmp	r1, #1
      if(__HAL_RCC_GET_FLAG(RCC_FLAG_HSERDY) == RESET)
 8000e9a:	681a      	ldr	r2, [r3, #0]
    if(RCC_ClkInitStruct->SYSCLKSource == RCC_SYSCLKSOURCE_HSE)
 8000e9c:	d11c      	bne.n	8000ed8 <HAL_RCC_ClockConfig+0xd8>
      if(__HAL_RCC_GET_FLAG(RCC_FLAG_HSERDY) == RESET)
 8000e9e:	f412 3f00 	tst.w	r2, #131072	; 0x20000
      if(__HAL_RCC_GET_FLAG(RCC_FLAG_HSIRDY) == RESET)
 8000ea2:	d0b2      	beq.n	8000e0a <HAL_RCC_ClockConfig+0xa>
    __HAL_RCC_SYSCLK_CONFIG(RCC_ClkInitStruct->SYSCLKSource);
 8000ea4:	689a      	ldr	r2, [r3, #8]
      if ((HAL_GetTick() - tickstart) > CLOCKSWITCH_TIMEOUT_VALUE)
 8000ea6:	f241 3888 	movw	r8, #5000	; 0x1388
    while (__HAL_RCC_GET_SYSCLK_SOURCE() != (RCC_ClkInitStruct->SYSCLKSource << RCC_CFGR_SWS_Pos))
 8000eaa:	4e1a      	ldr	r6, [pc, #104]	; (8000f14 <HAL_RCC_ClockConfig+0x114>)
    __HAL_RCC_SYSCLK_CONFIG(RCC_ClkInitStruct->SYSCLKSource);
 8000eac:	f022 0203 	bic.w	r2, r2, #3
 8000eb0:	430a      	orrs	r2, r1
 8000eb2:	609a      	str	r2, [r3, #8]
    tickstart = HAL_GetTick();
 8000eb4:	f7ff f9e8 	bl	8000288 <HAL_GetTick>
 8000eb8:	4607      	mov	r7, r0
    while (__HAL_RCC_GET_SYSCLK_SOURCE() != (RCC_ClkInitStruct->SYSCLKSource << RCC_CFGR_SWS_Pos))
 8000eba:	68b3      	ldr	r3, [r6, #8]
 8000ebc:	6862      	ldr	r2, [r4, #4]
 8000ebe:	f003 030c 	and.w	r3, r3, #12
 8000ec2:	ebb3 0f82 	cmp.w	r3, r2, lsl #2
 8000ec6:	d0ae      	beq.n	8000e26 <HAL_RCC_ClockConfig+0x26>
      if ((HAL_GetTick() - tickstart) > CLOCKSWITCH_TIMEOUT_VALUE)
 8000ec8:	f7ff f9de 	bl	8000288 <HAL_GetTick>
 8000ecc:	1bc0      	subs	r0, r0, r7
 8000ece:	4540      	cmp	r0, r8
 8000ed0:	d9f3      	bls.n	8000eba <HAL_RCC_ClockConfig+0xba>
        return HAL_TIMEOUT;
 8000ed2:	2003      	movs	r0, #3
}
 8000ed4:	e8bd 81f0 	ldmia.w	sp!, {r4, r5, r6, r7, r8, pc}
    else if(RCC_ClkInitStruct->SYSCLKSource == RCC_SYSCLKSOURCE_PLLCLK)
 8000ed8:	2902      	cmp	r1, #2
 8000eda:	d102      	bne.n	8000ee2 <HAL_RCC_ClockConfig+0xe2>
      if(__HAL_RCC_GET_FLAG(RCC_FLAG_PLLRDY) == RESET)
 8000edc:	f012 7f00 	tst.w	r2, #33554432	; 0x2000000
 8000ee0:	e7df      	b.n	8000ea2 <HAL_RCC_ClockConfig+0xa2>
      if(__HAL_RCC_GET_FLAG(RCC_FLAG_HSIRDY) == RESET)
 8000ee2:	f012 0f02 	tst.w	r2, #2
 8000ee6:	e7dc      	b.n	8000ea2 <HAL_RCC_ClockConfig+0xa2>
    __HAL_FLASH_SET_LATENCY(FLatency);
 8000ee8:	6813      	ldr	r3, [r2, #0]
 8000eea:	f023 030f 	bic.w	r3, r3, #15
 8000eee:	432b      	orrs	r3, r5
 8000ef0:	6013      	str	r3, [r2, #0]
    if(__HAL_FLASH_GET_LATENCY() != FLatency)
 8000ef2:	6813      	ldr	r3, [r2, #0]
 8000ef4:	f003 030f 	and.w	r3, r3, #15
 8000ef8:	429d      	cmp	r5, r3
 8000efa:	d186      	bne.n	8000e0a <HAL_RCC_ClockConfig+0xa>
 8000efc:	e799      	b.n	8000e32 <HAL_RCC_ClockConfig+0x32>
    MODIFY_REG(RCC->CFGR, RCC_CFGR_PPRE1, RCC_ClkInitStruct->APB1CLKDivider);
 8000efe:	4905      	ldr	r1, [pc, #20]	; (8000f14 <HAL_RCC_ClockConfig+0x114>)
 8000f00:	68e0      	ldr	r0, [r4, #12]
 8000f02:	688b      	ldr	r3, [r1, #8]
 8000f04:	f423 53e0 	bic.w	r3, r3, #7168	; 0x1c00
 8000f08:	4303      	orrs	r3, r0
 8000f0a:	608b      	str	r3, [r1, #8]
 8000f0c:	e794      	b.n	8000e38 <HAL_RCC_ClockConfig+0x38>
 8000f0e:	bf00      	nop
 8000f10:	40023c00 	.word	0x40023c00
 8000f14:	40023800 	.word	0x40023800
 8000f18:	08001bf7 	.word	0x08001bf7
 8000f1c:	20000000 	.word	0x20000000

08000f20 <HAL_RCC_GetHCLKFreq>:
  * @retval HCLK frequency
  */
uint32_t HAL_RCC_GetHCLKFreq(void)
{
  return SystemCoreClock;
}
 8000f20:	4b01      	ldr	r3, [pc, #4]	; (8000f28 <HAL_RCC_GetHCLKFreq+0x8>)
 8000f22:	6818      	ldr	r0, [r3, #0]
 8000f24:	4770      	bx	lr
 8000f26:	bf00      	nop
 8000f28:	20000000 	.word	0x20000000

08000f2c <HAL_TIM_Base_Start>:
  
  /* Set the TIM state */
  htim->State= HAL_TIM_STATE_BUSY;
  
  /* Enable the Peripheral */
  __HAL_TIM_ENABLE(htim);
 8000f2c:	6802      	ldr	r2, [r0, #0]
  htim->State= HAL_TIM_STATE_BUSY;
 8000f2e:	2302      	movs	r3, #2
 8000f30:	f880 303d 	strb.w	r3, [r0, #61]	; 0x3d
  __HAL_TIM_ENABLE(htim);
 8000f34:	6813      	ldr	r3, [r2, #0]
 8000f36:	f043 0301 	orr.w	r3, r3, #1
 8000f3a:	6013      	str	r3, [r2, #0]
  
  /* Change the TIM state*/
  htim->State= HAL_TIM_STATE_READY;
 8000f3c:	2301      	movs	r3, #1
 8000f3e:	f880 303d 	strb.w	r3, [r0, #61]	; 0x3d
  
  /* Return function status */
  return HAL_OK;
}
 8000f42:	2000      	movs	r0, #0
 8000f44:	4770      	bx	lr

08000f46 <HAL_TIM_PeriodElapsedCallback>:
 8000f46:	4770      	bx	lr

08000f48 <HAL_TIM_OC_DelayElapsedCallback>:
 8000f48:	4770      	bx	lr

08000f4a <HAL_TIM_IC_CaptureCallback>:
 8000f4a:	4770      	bx	lr

08000f4c <HAL_TIM_PWM_PulseFinishedCallback>:
 8000f4c:	4770      	bx	lr

08000f4e <HAL_TIM_TriggerCallback>:
 8000f4e:	4770      	bx	lr

08000f50 <HAL_TIM_IRQHandler>:
  * @retval None
  */
void HAL_TIM_IRQHandler(TIM_HandleTypeDef *htim)
{
  /* Capture compare 1 event */
  if(__HAL_TIM_GET_FLAG(htim, TIM_FLAG_CC1) != RESET)
 8000f50:	6803      	ldr	r3, [r0, #0]
 8000f52:	691a      	ldr	r2, [r3, #16]
 8000f54:	0791      	lsls	r1, r2, #30
{
 8000f56:	b510      	push	{r4, lr}
 8000f58:	4604      	mov	r4, r0
  if(__HAL_TIM_GET_FLAG(htim, TIM_FLAG_CC1) != RESET)
 8000f5a:	d50f      	bpl.n	8000f7c <HAL_TIM_IRQHandler+0x2c>
  {
    if(__HAL_TIM_GET_IT_SOURCE(htim, TIM_IT_CC1) !=RESET)
 8000f5c:	68da      	ldr	r2, [r3, #12]
 8000f5e:	0792      	lsls	r2, r2, #30
 8000f60:	d50c      	bpl.n	8000f7c <HAL_TIM_IRQHandler+0x2c>
    {
      {
        __HAL_TIM_CLEAR_IT(htim, TIM_IT_CC1);
 8000f62:	f06f 0202 	mvn.w	r2, #2
 8000f66:	611a      	str	r2, [r3, #16]
        htim->Channel = HAL_TIM_ACTIVE_CHANNEL_1;
 8000f68:	2201      	movs	r2, #1
        
        /* Input capture event */
        if((htim->Instance->CCMR1 & TIM_CCMR1_CC1S) != 0x00)
 8000f6a:	699b      	ldr	r3, [r3, #24]
        htim->Channel = HAL_TIM_ACTIVE_CHANNEL_1;
 8000f6c:	7702      	strb	r2, [r0, #28]
        if((htim->Instance->CCMR1 & TIM_CCMR1_CC1S) != 0x00)
 8000f6e:	0799      	lsls	r1, r3, #30
 8000f70:	f000 8085 	beq.w	800107e <HAL_TIM_IRQHandler+0x12e>
        {
          HAL_TIM_IC_CaptureCallback(htim);
 8000f74:	f7ff ffe9 	bl	8000f4a <HAL_TIM_IC_CaptureCallback>
        else
        {
          HAL_TIM_OC_DelayElapsedCallback(htim);
          HAL_TIM_PWM_PulseFinishedCallback(htim);
        }
        htim->Channel = HAL_TIM_ACTIVE_CHANNEL_CLEARED;
 8000f78:	2300      	movs	r3, #0
 8000f7a:	7723      	strb	r3, [r4, #28]
      }
    }
  }
  /* Capture compare 2 event */
  if(__HAL_TIM_GET_FLAG(htim, TIM_FLAG_CC2) != RESET)
 8000f7c:	6823      	ldr	r3, [r4, #0]
 8000f7e:	691a      	ldr	r2, [r3, #16]
 8000f80:	0752      	lsls	r2, r2, #29
 8000f82:	d510      	bpl.n	8000fa6 <HAL_TIM_IRQHandler+0x56>
  {
    if(__HAL_TIM_GET_IT_SOURCE(htim, TIM_IT_CC2) !=RESET)
 8000f84:	68da      	ldr	r2, [r3, #12]
 8000f86:	0750      	lsls	r0, r2, #29
 8000f88:	d50d      	bpl.n	8000fa6 <HAL_TIM_IRQHandler+0x56>
    {
      __HAL_TIM_CLEAR_IT(htim, TIM_IT_CC2);
 8000f8a:	f06f 0204 	mvn.w	r2, #4
      htim->Channel = HAL_TIM_ACTIVE_CHANNEL_2;
      /* Input capture event */
      if((htim->Instance->CCMR1 & TIM_CCMR1_CC2S) != 0x00)
      {          
        HAL_TIM_IC_CaptureCallback(htim);
 8000f8e:	4620      	mov	r0, r4
      __HAL_TIM_CLEAR_IT(htim, TIM_IT_CC2);
 8000f90:	611a      	str	r2, [r3, #16]
      htim->Channel = HAL_TIM_ACTIVE_CHANNEL_2;
 8000f92:	2202      	movs	r2, #2
      if((htim->Instance->CCMR1 & TIM_CCMR1_CC2S) != 0x00)
 8000f94:	699b      	ldr	r3, [r3, #24]
      htim->Channel = HAL_TIM_ACTIVE_CHANNEL_2;
 8000f96:	7722      	strb	r2, [r4, #28]
      if((htim->Instance->CCMR1 & TIM_CCMR1_CC2S) != 0x00)
 8000f98:	f413 7f40 	tst.w	r3, #768	; 0x300
 8000f9c:	d075      	beq.n	800108a <HAL_TIM_IRQHandler+0x13a>
        HAL_TIM_IC_CaptureCallback(htim);
 8000f9e:	f7ff ffd4 	bl	8000f4a <HAL_TIM_IC_CaptureCallback>
      else
      {
        HAL_TIM_OC_DelayElapsedCallback(htim);
        HAL_TIM_PWM_PulseFinishedCallback(htim);
      }
      htim->Channel = HAL_TIM_ACTIVE_CHANNEL_CLEARED;
 8000fa2:	2300      	movs	r3, #0
 8000fa4:	7723      	strb	r3, [r4, #28]
    }
  }
  /* Capture compare 3 event */
  if(__HAL_TIM_GET_FLAG(htim, TIM_FLAG_CC3) != RESET)
 8000fa6:	6823      	ldr	r3, [r4, #0]
 8000fa8:	691a      	ldr	r2, [r3, #16]
 8000faa:	0711      	lsls	r1, r2, #28
 8000fac:	d50f      	bpl.n	8000fce <HAL_TIM_IRQHandler+0x7e>
  {
    if(__HAL_TIM_GET_IT_SOURCE(htim, TIM_IT_CC3) !=RESET)
 8000fae:	68da      	ldr	r2, [r3, #12]
 8000fb0:	0712      	lsls	r2, r2, #28
 8000fb2:	d50c      	bpl.n	8000fce <HAL_TIM_IRQHandler+0x7e>
    {
      __HAL_TIM_CLEAR_IT(htim, TIM_IT_CC3);
 8000fb4:	f06f 0208 	mvn.w	r2, #8
      htim->Channel = HAL_TIM_ACTIVE_CHANNEL_3;
      /* Input capture event */
      if((htim->Instance->CCMR2 & TIM_CCMR2_CC3S) != 0x00)
      {          
        HAL_TIM_IC_CaptureCallback(htim);
 8000fb8:	4620      	mov	r0, r4
      __HAL_TIM_CLEAR_IT(htim, TIM_IT_CC3);
 8000fba:	611a      	str	r2, [r3, #16]
      htim->Channel = HAL_TIM_ACTIVE_CHANNEL_3;
 8000fbc:	2204      	movs	r2, #4
      if((htim->Instance->CCMR2 & TIM_CCMR2_CC3S) != 0x00)
 8000fbe:	69db      	ldr	r3, [r3, #28]
      htim->Channel = HAL_TIM_ACTIVE_CHANNEL_3;
 8000fc0:	7722      	strb	r2, [r4, #28]
      if((htim->Instance->CCMR2 & TIM_CCMR2_CC3S) != 0x00)
 8000fc2:	079b      	lsls	r3, r3, #30
 8000fc4:	d067      	beq.n	8001096 <HAL_TIM_IRQHandler+0x146>
        HAL_TIM_IC_CaptureCallback(htim);
 8000fc6:	f7ff ffc0 	bl	8000f4a <HAL_TIM_IC_CaptureCallback>
      else
      {
        HAL_TIM_OC_DelayElapsedCallback(htim);
        HAL_TIM_PWM_PulseFinishedCallback(htim); 
      }
      htim->Channel = HAL_TIM_ACTIVE_CHANNEL_CLEARED;
 8000fca:	2300      	movs	r3, #0
 8000fcc:	7723      	strb	r3, [r4, #28]
    }
  }
  /* Capture compare 4 event */
  if(__HAL_TIM_GET_FLAG(htim, TIM_FLAG_CC4) != RESET)
 8000fce:	6823      	ldr	r3, [r4, #0]
 8000fd0:	691a      	ldr	r2, [r3, #16]
 8000fd2:	06d0      	lsls	r0, r2, #27
 8000fd4:	d510      	bpl.n	8000ff8 <HAL_TIM_IRQHandler+0xa8>
  {
    if(__HAL_TIM_GET_IT_SOURCE(htim, TIM_IT_CC4) !=RESET)
 8000fd6:	68da      	ldr	r2, [r3, #12]
 8000fd8:	06d1      	lsls	r1, r2, #27
 8000fda:	d50d      	bpl.n	8000ff8 <HAL_TIM_IRQHandler+0xa8>
    {
      __HAL_TIM_CLEAR_IT(htim, TIM_IT_CC4);
 8000fdc:	f06f 0210 	mvn.w	r2, #16
      htim->Channel = HAL_TIM_ACTIVE_CHANNEL_4;
      /* Input capture event */
      if((htim->Instance->CCMR2 & TIM_CCMR2_CC4S) != 0x00)
      {          
        HAL_TIM_IC_CaptureCallback(htim);
 8000fe0:	4620      	mov	r0, r4
      __HAL_TIM_CLEAR_IT(htim, TIM_IT_CC4);
 8000fe2:	611a      	str	r2, [r3, #16]
      htim->Channel = HAL_TIM_ACTIVE_CHANNEL_4;
 8000fe4:	2208      	movs	r2, #8
      if((htim->Instance->CCMR2 & TIM_CCMR2_CC4S) != 0x00)
 8000fe6:	69db      	ldr	r3, [r3, #28]
      htim->Channel = HAL_TIM_ACTIVE_CHANNEL_4;
 8000fe8:	7722      	strb	r2, [r4, #28]
      if((htim->Instance->CCMR2 & TIM_CCMR2_CC4S) != 0x00)
 8000fea:	f413 7f40 	tst.w	r3, #768	; 0x300
 8000fee:	d058      	beq.n	80010a2 <HAL_TIM_IRQHandler+0x152>
        HAL_TIM_IC_CaptureCallback(htim);
 8000ff0:	f7ff ffab 	bl	8000f4a <HAL_TIM_IC_CaptureCallback>
      else
      {
        HAL_TIM_OC_DelayElapsedCallback(htim);
        HAL_TIM_PWM_PulseFinishedCallback(htim);
      }
      htim->Channel = HAL_TIM_ACTIVE_CHANNEL_CLEARED;
 8000ff4:	2300      	movs	r3, #0
 8000ff6:	7723      	strb	r3, [r4, #28]
    }
  }
  /* TIM Update event */
  if(__HAL_TIM_GET_FLAG(htim, TIM_FLAG_UPDATE) != RESET)
 8000ff8:	6823      	ldr	r3, [r4, #0]
 8000ffa:	691a      	ldr	r2, [r3, #16]
 8000ffc:	07d2      	lsls	r2, r2, #31
 8000ffe:	d508      	bpl.n	8001012 <HAL_TIM_IRQHandler+0xc2>
  {
    if(__HAL_TIM_GET_IT_SOURCE(htim, TIM_IT_UPDATE) !=RESET)
 8001000:	68da      	ldr	r2, [r3, #12]
 8001002:	07d0      	lsls	r0, r2, #31
 8001004:	d505      	bpl.n	8001012 <HAL_TIM_IRQHandler+0xc2>
    {
      __HAL_TIM_CLEAR_IT(htim, TIM_IT_UPDATE);
 8001006:	f06f 0201 	mvn.w	r2, #1
      HAL_TIM_PeriodElapsedCallback(htim);
 800100a:	4620      	mov	r0, r4
      __HAL_TIM_CLEAR_IT(htim, TIM_IT_UPDATE);
 800100c:	611a      	str	r2, [r3, #16]
      HAL_TIM_PeriodElapsedCallback(htim);
 800100e:	f7ff ff9a 	bl	8000f46 <HAL_TIM_PeriodElapsedCallback>
    }
  }
  /* TIM Break input event */
  if(__HAL_TIM_GET_FLAG(htim, TIM_FLAG_BREAK) != RESET)
 8001012:	6823      	ldr	r3, [r4, #0]
 8001014:	691a      	ldr	r2, [r3, #16]
 8001016:	0611      	lsls	r1, r2, #24
 8001018:	d508      	bpl.n	800102c <HAL_TIM_IRQHandler+0xdc>
  {
    if(__HAL_TIM_GET_IT_SOURCE(htim, TIM_IT_BREAK) !=RESET)
 800101a:	68da      	ldr	r2, [r3, #12]
 800101c:	0612      	lsls	r2, r2, #24
 800101e:	d505      	bpl.n	800102c <HAL_TIM_IRQHandler+0xdc>
    {
      __HAL_TIM_CLEAR_IT(htim, TIM_IT_BREAK);
 8001020:	f06f 0280 	mvn.w	r2, #128	; 0x80
      HAL_TIMEx_BreakCallback(htim);
 8001024:	4620      	mov	r0, r4
      __HAL_TIM_CLEAR_IT(htim, TIM_IT_BREAK);
 8001026:	611a      	str	r2, [r3, #16]
      HAL_TIMEx_BreakCallback(htim);
 8001028:	f000 f8eb 	bl	8001202 <HAL_TIMEx_BreakCallback>
    }
  }
  
    /* TIM Break input event */
  if(__HAL_TIM_GET_FLAG(htim, TIM_FLAG_BREAK2) != RESET)
 800102c:	6823      	ldr	r3, [r4, #0]
 800102e:	691a      	ldr	r2, [r3, #16]
 8001030:	05d0      	lsls	r0, r2, #23
 8001032:	d508      	bpl.n	8001046 <HAL_TIM_IRQHandler+0xf6>
  {
    if(__HAL_TIM_GET_IT_SOURCE(htim, TIM_IT_BREAK) !=RESET)
 8001034:	68da      	ldr	r2, [r3, #12]
 8001036:	0611      	lsls	r1, r2, #24
 8001038:	d505      	bpl.n	8001046 <HAL_TIM_IRQHandler+0xf6>
    {
      __HAL_TIM_CLEAR_IT(htim, TIM_IT_BREAK);
 800103a:	f06f 0280 	mvn.w	r2, #128	; 0x80
      HAL_TIMEx_BreakCallback(htim);
 800103e:	4620      	mov	r0, r4
      __HAL_TIM_CLEAR_IT(htim, TIM_IT_BREAK);
 8001040:	611a      	str	r2, [r3, #16]
      HAL_TIMEx_BreakCallback(htim);
 8001042:	f000 f8de 	bl	8001202 <HAL_TIMEx_BreakCallback>
    }
  }

  /* TIM Trigger detection event */
  if(__HAL_TIM_GET_FLAG(htim, TIM_FLAG_TRIGGER) != RESET)
 8001046:	6823      	ldr	r3, [r4, #0]
 8001048:	691a      	ldr	r2, [r3, #16]
 800104a:	0652      	lsls	r2, r2, #25
 800104c:	d508      	bpl.n	8001060 <HAL_TIM_IRQHandler+0x110>
  {
    if(__HAL_TIM_GET_IT_SOURCE(htim, TIM_IT_TRIGGER) !=RESET)
 800104e:	68da      	ldr	r2, [r3, #12]
 8001050:	0650      	lsls	r0, r2, #25
 8001052:	d505      	bpl.n	8001060 <HAL_TIM_IRQHandler+0x110>
    {
      __HAL_TIM_CLEAR_IT(htim, TIM_IT_TRIGGER);
 8001054:	f06f 0240 	mvn.w	r2, #64	; 0x40
      HAL_TIM_TriggerCallback(htim);
 8001058:	4620      	mov	r0, r4
      __HAL_TIM_CLEAR_IT(htim, TIM_IT_TRIGGER);
 800105a:	611a      	str	r2, [r3, #16]
      HAL_TIM_TriggerCallback(htim);
 800105c:	f7ff ff77 	bl	8000f4e <HAL_TIM_TriggerCallback>
    }
  }
  /* TIM commutation event */
  if(__HAL_TIM_GET_FLAG(htim, TIM_FLAG_COM) != RESET)
 8001060:	6823      	ldr	r3, [r4, #0]
 8001062:	691a      	ldr	r2, [r3, #16]
 8001064:	0691      	lsls	r1, r2, #26
 8001066:	d522      	bpl.n	80010ae <HAL_TIM_IRQHandler+0x15e>
  {
    if(__HAL_TIM_GET_IT_SOURCE(htim, TIM_IT_COM) !=RESET)
 8001068:	68da      	ldr	r2, [r3, #12]
 800106a:	0692      	lsls	r2, r2, #26
 800106c:	d51f      	bpl.n	80010ae <HAL_TIM_IRQHandler+0x15e>
    {
      __HAL_TIM_CLEAR_IT(htim, TIM_FLAG_COM);
 800106e:	f06f 0220 	mvn.w	r2, #32
      HAL_TIMEx_CommutationCallback(htim);
 8001072:	4620      	mov	r0, r4
      __HAL_TIM_CLEAR_IT(htim, TIM_FLAG_COM);
 8001074:	611a      	str	r2, [r3, #16]
    }
  }
}
 8001076:	e8bd 4010 	ldmia.w	sp!, {r4, lr}
      HAL_TIMEx_CommutationCallback(htim);
 800107a:	f000 b8c1 	b.w	8001200 <HAL_TIMEx_CommutationCallback>
          HAL_TIM_OC_DelayElapsedCallback(htim);
 800107e:	f7ff ff63 	bl	8000f48 <HAL_TIM_OC_DelayElapsedCallback>
          HAL_TIM_PWM_PulseFinishedCallback(htim);
 8001082:	4620      	mov	r0, r4
 8001084:	f7ff ff62 	bl	8000f4c <HAL_TIM_PWM_PulseFinishedCallback>
 8001088:	e776      	b.n	8000f78 <HAL_TIM_IRQHandler+0x28>
        HAL_TIM_OC_DelayElapsedCallback(htim);
 800108a:	f7ff ff5d 	bl	8000f48 <HAL_TIM_OC_DelayElapsedCallback>
        HAL_TIM_PWM_PulseFinishedCallback(htim);
 800108e:	4620      	mov	r0, r4
 8001090:	f7ff ff5c 	bl	8000f4c <HAL_TIM_PWM_PulseFinishedCallback>
 8001094:	e785      	b.n	8000fa2 <HAL_TIM_IRQHandler+0x52>
        HAL_TIM_OC_DelayElapsedCallback(htim);
 8001096:	f7ff ff57 	bl	8000f48 <HAL_TIM_OC_DelayElapsedCallback>
        HAL_TIM_PWM_PulseFinishedCallback(htim); 
 800109a:	4620      	mov	r0, r4
 800109c:	f7ff ff56 	bl	8000f4c <HAL_TIM_PWM_PulseFinishedCallback>
 80010a0:	e793      	b.n	8000fca <HAL_TIM_IRQHandler+0x7a>
        HAL_TIM_OC_DelayElapsedCallback(htim);
 80010a2:	f7ff ff51 	bl	8000f48 <HAL_TIM_OC_DelayElapsedCallback>
        HAL_TIM_PWM_PulseFinishedCallback(htim);
 80010a6:	4620      	mov	r0, r4
 80010a8:	f7ff ff50 	bl	8000f4c <HAL_TIM_PWM_PulseFinishedCallback>
 80010ac:	e7a2      	b.n	8000ff4 <HAL_TIM_IRQHandler+0xa4>
 80010ae:	bd10      	pop	{r4, pc}

080010b0 <TIM_Base_SetConfig>:
{
  uint32_t tmpcr1 = 0;
  tmpcr1 = TIMx->CR1;
  
  /* Set TIM Time Base Unit parameters ---------------------------------------*/
  if(IS_TIM_CC3_INSTANCE(TIMx) != RESET)   
 80010b0:	4a30      	ldr	r2, [pc, #192]	; (8001174 <TIM_Base_SetConfig+0xc4>)
  tmpcr1 = TIMx->CR1;
 80010b2:	6803      	ldr	r3, [r0, #0]
  if(IS_TIM_CC3_INSTANCE(TIMx) != RESET)   
 80010b4:	4290      	cmp	r0, r2
 80010b6:	d012      	beq.n	80010de <TIM_Base_SetConfig+0x2e>
 80010b8:	f1b0 4f80 	cmp.w	r0, #1073741824	; 0x40000000
 80010bc:	d00f      	beq.n	80010de <TIM_Base_SetConfig+0x2e>
 80010be:	f5a2 427c 	sub.w	r2, r2, #64512	; 0xfc00
 80010c2:	4290      	cmp	r0, r2
 80010c4:	d00b      	beq.n	80010de <TIM_Base_SetConfig+0x2e>
 80010c6:	f502 6280 	add.w	r2, r2, #1024	; 0x400
 80010ca:	4290      	cmp	r0, r2
 80010cc:	d007      	beq.n	80010de <TIM_Base_SetConfig+0x2e>
 80010ce:	f502 6280 	add.w	r2, r2, #1024	; 0x400
 80010d2:	4290      	cmp	r0, r2
 80010d4:	d003      	beq.n	80010de <TIM_Base_SetConfig+0x2e>
 80010d6:	f502 4278 	add.w	r2, r2, #63488	; 0xf800
 80010da:	4290      	cmp	r0, r2
 80010dc:	d11d      	bne.n	800111a <TIM_Base_SetConfig+0x6a>
  {
    /* Select the Counter Mode */
    tmpcr1 &= ~(TIM_CR1_DIR | TIM_CR1_CMS);
    tmpcr1 |= Structure->CounterMode;
 80010de:	684a      	ldr	r2, [r1, #4]
    tmpcr1 &= ~(TIM_CR1_DIR | TIM_CR1_CMS);
 80010e0:	f023 0370 	bic.w	r3, r3, #112	; 0x70
    tmpcr1 |= Structure->CounterMode;
 80010e4:	4313      	orrs	r3, r2
  }
 
  if(IS_TIM_CC1_INSTANCE(TIMx) != RESET)  
 80010e6:	4a23      	ldr	r2, [pc, #140]	; (8001174 <TIM_Base_SetConfig+0xc4>)
 80010e8:	4290      	cmp	r0, r2
 80010ea:	d104      	bne.n	80010f6 <TIM_Base_SetConfig+0x46>
  {
    /* Set the clock division */
    tmpcr1 &= ~TIM_CR1_CKD;
 80010ec:	f423 7340 	bic.w	r3, r3, #768	; 0x300
    tmpcr1 |= (uint32_t)Structure->ClockDivision;
 80010f0:	68ca      	ldr	r2, [r1, #12]
 80010f2:	4313      	orrs	r3, r2
 80010f4:	e028      	b.n	8001148 <TIM_Base_SetConfig+0x98>
  if(IS_TIM_CC1_INSTANCE(TIMx) != RESET)  
 80010f6:	f1b0 4f80 	cmp.w	r0, #1073741824	; 0x40000000
 80010fa:	d0f7      	beq.n	80010ec <TIM_Base_SetConfig+0x3c>
 80010fc:	4a1e      	ldr	r2, [pc, #120]	; (8001178 <TIM_Base_SetConfig+0xc8>)
 80010fe:	4290      	cmp	r0, r2
 8001100:	d0f4      	beq.n	80010ec <TIM_Base_SetConfig+0x3c>
 8001102:	f502 6280 	add.w	r2, r2, #1024	; 0x400
 8001106:	4290      	cmp	r0, r2
 8001108:	d0f0      	beq.n	80010ec <TIM_Base_SetConfig+0x3c>
 800110a:	f502 6280 	add.w	r2, r2, #1024	; 0x400
 800110e:	4290      	cmp	r0, r2
 8001110:	d0ec      	beq.n	80010ec <TIM_Base_SetConfig+0x3c>
 8001112:	f502 4278 	add.w	r2, r2, #63488	; 0xf800
 8001116:	4290      	cmp	r0, r2
 8001118:	d0e8      	beq.n	80010ec <TIM_Base_SetConfig+0x3c>
 800111a:	4a18      	ldr	r2, [pc, #96]	; (800117c <TIM_Base_SetConfig+0xcc>)
 800111c:	4290      	cmp	r0, r2
 800111e:	d0e5      	beq.n	80010ec <TIM_Base_SetConfig+0x3c>
 8001120:	f502 6280 	add.w	r2, r2, #1024	; 0x400
 8001124:	4290      	cmp	r0, r2
 8001126:	d0e1      	beq.n	80010ec <TIM_Base_SetConfig+0x3c>
 8001128:	f502 6280 	add.w	r2, r2, #1024	; 0x400
 800112c:	4290      	cmp	r0, r2
 800112e:	d0dd      	beq.n	80010ec <TIM_Base_SetConfig+0x3c>
 8001130:	f5a2 3298 	sub.w	r2, r2, #77824	; 0x13000
 8001134:	4290      	cmp	r0, r2
 8001136:	d0d9      	beq.n	80010ec <TIM_Base_SetConfig+0x3c>
 8001138:	f502 6280 	add.w	r2, r2, #1024	; 0x400
 800113c:	4290      	cmp	r0, r2
 800113e:	d0d5      	beq.n	80010ec <TIM_Base_SetConfig+0x3c>
 8001140:	f502 6280 	add.w	r2, r2, #1024	; 0x400
 8001144:	4290      	cmp	r0, r2
 8001146:	d0d1      	beq.n	80010ec <TIM_Base_SetConfig+0x3c>
  }

  /* Set the auto-reload preload */
  MODIFY_REG(tmpcr1, TIM_CR1_ARPE, Structure->AutoReloadPreload);
 8001148:	694a      	ldr	r2, [r1, #20]
 800114a:	f023 0380 	bic.w	r3, r3, #128	; 0x80
 800114e:	4313      	orrs	r3, r2

  TIMx->CR1 = tmpcr1;
 8001150:	6003      	str	r3, [r0, #0]

  /* Set the Auto-reload value */
  TIMx->ARR = (uint32_t)Structure->Period ;
 8001152:	688b      	ldr	r3, [r1, #8]
 8001154:	62c3      	str	r3, [r0, #44]	; 0x2c
 
  /* Set the Prescaler value */
  TIMx->PSC = (uint32_t)Structure->Prescaler;
 8001156:	680b      	ldr	r3, [r1, #0]
 8001158:	6283      	str	r3, [r0, #40]	; 0x28
    
  if(IS_TIM_ADVANCED_INSTANCE(TIMx) != RESET)  
 800115a:	4b06      	ldr	r3, [pc, #24]	; (8001174 <TIM_Base_SetConfig+0xc4>)
 800115c:	4298      	cmp	r0, r3
 800115e:	d006      	beq.n	800116e <TIM_Base_SetConfig+0xbe>
 8001160:	f503 6380 	add.w	r3, r3, #1024	; 0x400
 8001164:	4298      	cmp	r0, r3
 8001166:	d002      	beq.n	800116e <TIM_Base_SetConfig+0xbe>
    TIMx->RCR = Structure->RepetitionCounter;
  }

  /* Generate an update event to reload the Prescaler 
     and the repetition counter(only for TIM1 and TIM8) value immediately */
  TIMx->EGR = TIM_EGR_UG;
 8001168:	2301      	movs	r3, #1
 800116a:	6143      	str	r3, [r0, #20]
}
 800116c:	4770      	bx	lr
    TIMx->RCR = Structure->RepetitionCounter;
 800116e:	690b      	ldr	r3, [r1, #16]
 8001170:	6303      	str	r3, [r0, #48]	; 0x30
 8001172:	e7f9      	b.n	8001168 <TIM_Base_SetConfig+0xb8>
 8001174:	40010000 	.word	0x40010000
 8001178:	40000400 	.word	0x40000400
 800117c:	40014000 	.word	0x40014000

08001180 <HAL_TIM_Base_Init>:
{ 
 8001180:	b510      	push	{r4, lr}
  if(htim == NULL)
 8001182:	4604      	mov	r4, r0
 8001184:	b1a0      	cbz	r0, 80011b0 <HAL_TIM_Base_Init+0x30>
  if(htim->State == HAL_TIM_STATE_RESET)
 8001186:	f890 303d 	ldrb.w	r3, [r0, #61]	; 0x3d
 800118a:	f003 02ff 	and.w	r2, r3, #255	; 0xff
 800118e:	b91b      	cbnz	r3, 8001198 <HAL_TIM_Base_Init+0x18>
    htim->Lock = HAL_UNLOCKED;
 8001190:	f880 203c 	strb.w	r2, [r0, #60]	; 0x3c
    HAL_TIM_Base_MspInit(htim);
 8001194:	f000 fc4e 	bl	8001a34 <HAL_TIM_Base_MspInit>
  htim->State= HAL_TIM_STATE_BUSY;
 8001198:	2302      	movs	r3, #2
  TIM_Base_SetConfig(htim->Instance, &htim->Init); 
 800119a:	6820      	ldr	r0, [r4, #0]
 800119c:	1d21      	adds	r1, r4, #4
  htim->State= HAL_TIM_STATE_BUSY;
 800119e:	f884 303d 	strb.w	r3, [r4, #61]	; 0x3d
  TIM_Base_SetConfig(htim->Instance, &htim->Init); 
 80011a2:	f7ff ff85 	bl	80010b0 <TIM_Base_SetConfig>
  htim->State= HAL_TIM_STATE_READY;
 80011a6:	2301      	movs	r3, #1
  return HAL_OK;
 80011a8:	2000      	movs	r0, #0
  htim->State= HAL_TIM_STATE_READY;
 80011aa:	f884 303d 	strb.w	r3, [r4, #61]	; 0x3d
  return HAL_OK;
 80011ae:	bd10      	pop	{r4, pc}
    return HAL_ERROR;
 80011b0:	2001      	movs	r0, #1
}
 80011b2:	bd10      	pop	{r4, pc}

080011b4 <HAL_TIMEx_MasterConfigSynchronization>:
  assert_param(IS_TIM_SYNCHRO_INSTANCE(htim->Instance));
  assert_param(IS_TIM_TRGO_SOURCE(sMasterConfig->MasterOutputTrigger));
  assert_param(IS_TIM_MSM_STATE(sMasterConfig->MasterSlaveMode));
  
  /* Check input state */
  __HAL_LOCK(htim);
 80011b4:	f890 303c 	ldrb.w	r3, [r0, #60]	; 0x3c
 80011b8:	2b01      	cmp	r3, #1
{
 80011ba:	b530      	push	{r4, r5, lr}
  __HAL_LOCK(htim);
 80011bc:	d01c      	beq.n	80011f8 <HAL_TIMEx_MasterConfigSynchronization+0x44>

 /* Get the TIMx CR2 register value */
  tmpcr2 = htim->Instance->CR2;
 80011be:	6802      	ldr	r2, [r0, #0]

  /* Get the TIMx SMCR register value */
  tmpsmcr = htim->Instance->SMCR;

  /* If the timer supports ADC synchronization through TRGO2, set the master mode selection 2 */
  if (IS_TIM_TRGO2_INSTANCE(htim->Instance))
 80011c0:	4d0e      	ldr	r5, [pc, #56]	; (80011fc <HAL_TIMEx_MasterConfigSynchronization+0x48>)
  tmpcr2 = htim->Instance->CR2;
 80011c2:	6853      	ldr	r3, [r2, #4]
  if (IS_TIM_TRGO2_INSTANCE(htim->Instance))
 80011c4:	42aa      	cmp	r2, r5
  tmpsmcr = htim->Instance->SMCR;
 80011c6:	6894      	ldr	r4, [r2, #8]
  if (IS_TIM_TRGO2_INSTANCE(htim->Instance))
 80011c8:	d003      	beq.n	80011d2 <HAL_TIMEx_MasterConfigSynchronization+0x1e>
 80011ca:	f505 6580 	add.w	r5, r5, #1024	; 0x400
 80011ce:	42aa      	cmp	r2, r5
 80011d0:	d103      	bne.n	80011da <HAL_TIMEx_MasterConfigSynchronization+0x26>
  {
    /* Check the parameters */
    assert_param(IS_TIM_TRGO2_SOURCE(sMasterConfig->MasterOutputTrigger2));
    
    /* Clear the MMS2 bits */
    tmpcr2 &= ~TIM_CR2_MMS2;
 80011d2:	f423 0370 	bic.w	r3, r3, #15728640	; 0xf00000
    /* Select the TRGO2 source*/
    tmpcr2 |= sMasterConfig->MasterOutputTrigger2;
 80011d6:	684d      	ldr	r5, [r1, #4]
 80011d8:	432b      	orrs	r3, r5
  }
  
  /* Reset the MMS Bits */
  tmpcr2 &= ~TIM_CR2_MMS;
  /* Select the TRGO source */
  tmpcr2 |=  sMasterConfig->MasterOutputTrigger;
 80011da:	680d      	ldr	r5, [r1, #0]
  tmpcr2 &= ~TIM_CR2_MMS;
 80011dc:	f023 0370 	bic.w	r3, r3, #112	; 0x70

  /* Reset the MSM Bit */
  tmpsmcr &= ~TIM_SMCR_MSM;
  /* Set master mode */
  tmpsmcr |= sMasterConfig->MasterSlaveMode;
 80011e0:	6889      	ldr	r1, [r1, #8]
  tmpsmcr &= ~TIM_SMCR_MSM;
 80011e2:	f024 0480 	bic.w	r4, r4, #128	; 0x80
  tmpcr2 |=  sMasterConfig->MasterOutputTrigger;
 80011e6:	432b      	orrs	r3, r5
  tmpsmcr |= sMasterConfig->MasterSlaveMode;
 80011e8:	4321      	orrs	r1, r4
  
  /* Update TIMx CR2 */
  htim->Instance->CR2 = tmpcr2;
 80011ea:	6053      	str	r3, [r2, #4]
  
  /* Update TIMx SMCR */
  htim->Instance->SMCR = tmpsmcr;

  __HAL_UNLOCK(htim);
 80011ec:	2300      	movs	r3, #0
  htim->Instance->SMCR = tmpsmcr;
 80011ee:	6091      	str	r1, [r2, #8]
  __HAL_UNLOCK(htim);
 80011f0:	f880 303c 	strb.w	r3, [r0, #60]	; 0x3c
  
  return HAL_OK;
 80011f4:	4618      	mov	r0, r3
 80011f6:	bd30      	pop	{r4, r5, pc}
  __HAL_LOCK(htim);
 80011f8:	2002      	movs	r0, #2
} 
 80011fa:	bd30      	pop	{r4, r5, pc}
 80011fc:	40010000 	.word	0x40010000

08001200 <HAL_TIMEx_CommutationCallback>:
 8001200:	4770      	bx	lr

08001202 <HAL_TIMEx_BreakCallback>:
  * @param  htim: pointer to a TIM_HandleTypeDef structure that contains
  *                the configuration information for TIM module.
  * @retval None
  */
__weak void HAL_TIMEx_BreakCallback(TIM_HandleTypeDef *htim)
{
 8001202:	4770      	bx	lr

08001204 <SystemClock_Config>:
  RCC_OscInitTypeDef RCC_OscInitStruct;
  RCC_ClkInitTypeDef RCC_ClkInitStruct;

    /**Configure the main internal regulator output voltage 
    */
  __HAL_RCC_PWR_CLK_ENABLE();
 8001204:	4b21      	ldr	r3, [pc, #132]	; (800128c <SystemClock_Config+0x88>)
 8001206:	6c1a      	ldr	r2, [r3, #64]	; 0x40
 8001208:	f042 5280 	orr.w	r2, r2, #268435456	; 0x10000000
{
 800120c:	b510      	push	{r4, lr}
  __HAL_RCC_PWR_CLK_ENABLE();
 800120e:	641a      	str	r2, [r3, #64]	; 0x40
{
 8001210:	b094      	sub	sp, #80	; 0x50
  __HAL_RCC_PWR_CLK_ENABLE();
 8001212:	6c1b      	ldr	r3, [r3, #64]	; 0x40

  __HAL_PWR_VOLTAGESCALING_CONFIG(PWR_REGULATOR_VOLTAGE_SCALE3);

    /**Initializes the CPU, AHB and APB busses clocks 
    */
  RCC_OscInitStruct.OscillatorType = RCC_OSCILLATORTYPE_HSE;
 8001214:	2401      	movs	r4, #1
  __HAL_PWR_VOLTAGESCALING_CONFIG(PWR_REGULATOR_VOLTAGE_SCALE3);
 8001216:	4a1e      	ldr	r2, [pc, #120]	; (8001290 <SystemClock_Config+0x8c>)
  RCC_OscInitStruct.HSEState = RCC_HSE_ON;
  RCC_OscInitStruct.PLL.PLLState = RCC_PLL_NONE;
  if (HAL_RCC_OscConfig(&RCC_OscInitStruct) != HAL_OK)
 8001218:	a807      	add	r0, sp, #28
  __HAL_RCC_PWR_CLK_ENABLE();
 800121a:	f003 5380 	and.w	r3, r3, #268435456	; 0x10000000
 800121e:	9300      	str	r3, [sp, #0]
 8001220:	9b00      	ldr	r3, [sp, #0]
  __HAL_PWR_VOLTAGESCALING_CONFIG(PWR_REGULATOR_VOLTAGE_SCALE3);
 8001222:	6813      	ldr	r3, [r2, #0]
 8001224:	f423 4340 	bic.w	r3, r3, #49152	; 0xc000
 8001228:	f443 4380 	orr.w	r3, r3, #16384	; 0x4000
 800122c:	6013      	str	r3, [r2, #0]
 800122e:	6813      	ldr	r3, [r2, #0]
  RCC_OscInitStruct.OscillatorType = RCC_OSCILLATORTYPE_HSE;
 8001230:	9407      	str	r4, [sp, #28]
  __HAL_PWR_VOLTAGESCALING_CONFIG(PWR_REGULATOR_VOLTAGE_SCALE3);
 8001232:	f403 4340 	and.w	r3, r3, #49152	; 0xc000
 8001236:	9301      	str	r3, [sp, #4]
 8001238:	9b01      	ldr	r3, [sp, #4]
  RCC_OscInitStruct.HSEState = RCC_HSE_ON;
 800123a:	f44f 3380 	mov.w	r3, #65536	; 0x10000
 800123e:	9308      	str	r3, [sp, #32]
  RCC_OscInitStruct.PLL.PLLState = RCC_PLL_NONE;
 8001240:	2300      	movs	r3, #0
 8001242:	930d      	str	r3, [sp, #52]	; 0x34
  if (HAL_RCC_OscConfig(&RCC_OscInitStruct) != HAL_OK)
 8001244:	f7ff fc1e 	bl	8000a84 <HAL_RCC_OscConfig>
 8001248:	4601      	mov	r1, r0
 800124a:	b100      	cbz	r0, 800124e <SystemClock_Config+0x4a>
 800124c:	e7fe      	b.n	800124c <SystemClock_Config+0x48>
    _Error_Handler(__FILE__, __LINE__);
  }

    /**Initializes the CPU, AHB and APB busses clocks 
    */
  RCC_ClkInitStruct.ClockType = RCC_CLOCKTYPE_HCLK|RCC_CLOCKTYPE_SYSCLK
 800124e:	230f      	movs	r3, #15
                              |RCC_CLOCKTYPE_PCLK1|RCC_CLOCKTYPE_PCLK2;
  RCC_ClkInitStruct.SYSCLKSource = RCC_SYSCLKSOURCE_HSE;
  RCC_ClkInitStruct.AHBCLKDivider = RCC_SYSCLK_DIV1;
 8001250:	9004      	str	r0, [sp, #16]
  RCC_ClkInitStruct.APB1CLKDivider = RCC_HCLK_DIV1;
 8001252:	9005      	str	r0, [sp, #20]
  RCC_ClkInitStruct.APB2CLKDivider = RCC_HCLK_DIV1;
 8001254:	9006      	str	r0, [sp, #24]

  if (HAL_RCC_ClockConfig(&RCC_ClkInitStruct, FLASH_LATENCY_0) != HAL_OK)
 8001256:	a802      	add	r0, sp, #8
  RCC_ClkInitStruct.SYSCLKSource = RCC_SYSCLKSOURCE_HSE;
 8001258:	9403      	str	r4, [sp, #12]
  RCC_ClkInitStruct.ClockType = RCC_CLOCKTYPE_HCLK|RCC_CLOCKTYPE_SYSCLK
 800125a:	9302      	str	r3, [sp, #8]
  if (HAL_RCC_ClockConfig(&RCC_ClkInitStruct, FLASH_LATENCY_0) != HAL_OK)
 800125c:	f7ff fdd0 	bl	8000e00 <HAL_RCC_ClockConfig>
 8001260:	4604      	mov	r4, r0
 8001262:	b100      	cbz	r0, 8001266 <SystemClock_Config+0x62>
 8001264:	e7fe      	b.n	8001264 <SystemClock_Config+0x60>
    _Error_Handler(__FILE__, __LINE__);
  }

    /**Configure the Systick interrupt time 
    */
  HAL_SYSTICK_Config(HAL_RCC_GetHCLKFreq()/1000);
 8001266:	f7ff fe5b 	bl	8000f20 <HAL_RCC_GetHCLKFreq>
 800126a:	f44f 737a 	mov.w	r3, #1000	; 0x3e8
 800126e:	fbb0 f0f3 	udiv	r0, r0, r3
 8001272:	f7ff f865 	bl	8000340 <HAL_SYSTICK_Config>

    /**Configure the Systick 
    */
  HAL_SYSTICK_CLKSourceConfig(SYSTICK_CLKSOURCE_HCLK);
 8001276:	2004      	movs	r0, #4
 8001278:	f7ff f878 	bl	800036c <HAL_SYSTICK_CLKSourceConfig>

  /* SysTick_IRQn interrupt configuration */
  HAL_NVIC_SetPriority(SysTick_IRQn, 0, 0);
 800127c:	4622      	mov	r2, r4
 800127e:	4621      	mov	r1, r4
 8001280:	f04f 30ff 	mov.w	r0, #4294967295
 8001284:	f7ff f818 	bl	80002b8 <HAL_NVIC_SetPriority>
}
 8001288:	b014      	add	sp, #80	; 0x50
 800128a:	bd10      	pop	{r4, pc}
 800128c:	40023800 	.word	0x40023800
 8001290:	40007000 	.word	0x40007000

08001294 <main>:
{
 8001294:	e92d 4880 	stmdb	sp!, {r7, fp, lr}
{

  GPIO_InitTypeDef GPIO_InitStruct;

  /* GPIO Ports Clock Enable */
  __HAL_RCC_GPIOE_CLK_ENABLE();
 8001298:	4fa6      	ldr	r7, [pc, #664]	; (8001534 <main+0x2a0>)
{
 800129a:	b097      	sub	sp, #92	; 0x5c
  HAL_Init();
 800129c:	f7fe ffe0 	bl	8000260 <HAL_Init>
  __HAL_RCC_GPIOH_CLK_ENABLE();

  /*Configure GPIO pins : SAI1_FSA_Pin SAI1_SDB_Pin SAI1_SCKA_Pin SAI1_SDA_Pin */
  GPIO_InitStruct.Pin = SAI1_FSA_Pin|SAI1_SDB_Pin|SAI1_SCKA_Pin|SAI1_SDA_Pin;
  GPIO_InitStruct.Mode = GPIO_MODE_AF_PP;
  GPIO_InitStruct.Pull = GPIO_NOPULL;
 80012a0:	2400      	movs	r4, #0
  SystemClock_Config();
 80012a2:	f7ff ffaf 	bl	8001204 <SystemClock_Config>
  __HAL_RCC_GPIOE_CLK_ENABLE();
 80012a6:	6b3b      	ldr	r3, [r7, #48]	; 0x30
  GPIO_InitStruct.Mode = GPIO_MODE_AF_PP;
 80012a8:	2502      	movs	r5, #2
  GPIO_InitStruct.Speed = GPIO_SPEED_FREQ_LOW;
  GPIO_InitStruct.Alternate = GPIO_AF6_SAI1;
  HAL_GPIO_Init(GPIOE, &GPIO_InitStruct);
 80012aa:	a911      	add	r1, sp, #68	; 0x44
  __HAL_RCC_GPIOE_CLK_ENABLE();
 80012ac:	f043 0310 	orr.w	r3, r3, #16
  HAL_GPIO_Init(GPIOE, &GPIO_InitStruct);
 80012b0:	48a1      	ldr	r0, [pc, #644]	; (8001538 <main+0x2a4>)

  /*Configure GPIO pin : QSPI_D2_Pin */
  GPIO_InitStruct.Pin = QSPI_D2_Pin;
  GPIO_InitStruct.Mode = GPIO_MODE_AF_PP;
  GPIO_InitStruct.Pull = GPIO_NOPULL;
  GPIO_InitStruct.Speed = GPIO_SPEED_FREQ_VERY_HIGH;
 80012b2:	2603      	movs	r6, #3
  GPIO_InitStruct.Pin = QSPI_D2_Pin;
 80012b4:	f04f 0904 	mov.w	r9, #4
  __HAL_RCC_GPIOE_CLK_ENABLE();
 80012b8:	633b      	str	r3, [r7, #48]	; 0x30
                          |FMC_D8_Pin|FMC_D11_Pin|FMC_D4_Pin|FMC_D7_Pin 
                          |FMC_D9_Pin|FMC_D12_Pin|FMC_D10_Pin;
  GPIO_InitStruct.Mode = GPIO_MODE_AF_PP;
  GPIO_InitStruct.Pull = GPIO_NOPULL;
  GPIO_InitStruct.Speed = GPIO_SPEED_FREQ_VERY_HIGH;
  GPIO_InitStruct.Alternate = GPIO_AF12_FMC;
 80012ba:	f04f 0a0c 	mov.w	sl, #12
  __HAL_RCC_GPIOE_CLK_ENABLE();
 80012be:	6b3b      	ldr	r3, [r7, #48]	; 0x30
  HAL_GPIO_Init(GPIOE, &GPIO_InitStruct);

  /*Configure GPIO pins : ARDUINO_SCL_D15_Pin ARDUINO_SDA_D14_Pin */
  GPIO_InitStruct.Pin = ARDUINO_SCL_D15_Pin|ARDUINO_SDA_D14_Pin;
  GPIO_InitStruct.Mode = GPIO_MODE_AF_OD;
  GPIO_InitStruct.Pull = GPIO_PULLUP;
 80012c0:	f04f 0b01 	mov.w	fp, #1
  GPIO_InitStruct.Pin = ULPI_D7_Pin|ULPI_D6_Pin|ULPI_D5_Pin|ULPI_D3_Pin 
                          |ULPI_D2_Pin|ULPI_D1_Pin|ULPI_D4_Pin;
  GPIO_InitStruct.Mode = GPIO_MODE_AF_PP;
  GPIO_InitStruct.Pull = GPIO_NOPULL;
  GPIO_InitStruct.Speed = GPIO_SPEED_FREQ_VERY_HIGH;
  GPIO_InitStruct.Alternate = GPIO_AF10_OTG_HS;
 80012c4:	f04f 080a 	mov.w	r8, #10
  __HAL_RCC_GPIOE_CLK_ENABLE();
 80012c8:	f003 0310 	and.w	r3, r3, #16
 80012cc:	9306      	str	r3, [sp, #24]
 80012ce:	9b06      	ldr	r3, [sp, #24]
  __HAL_RCC_GPIOG_CLK_ENABLE();
 80012d0:	6b3b      	ldr	r3, [r7, #48]	; 0x30
 80012d2:	f043 0340 	orr.w	r3, r3, #64	; 0x40
 80012d6:	633b      	str	r3, [r7, #48]	; 0x30
 80012d8:	6b3b      	ldr	r3, [r7, #48]	; 0x30
 80012da:	f003 0340 	and.w	r3, r3, #64	; 0x40
 80012de:	9307      	str	r3, [sp, #28]
 80012e0:	9b07      	ldr	r3, [sp, #28]
  __HAL_RCC_GPIOB_CLK_ENABLE();
 80012e2:	6b3b      	ldr	r3, [r7, #48]	; 0x30
 80012e4:	f043 0302 	orr.w	r3, r3, #2
 80012e8:	633b      	str	r3, [r7, #48]	; 0x30
 80012ea:	6b3b      	ldr	r3, [r7, #48]	; 0x30
 80012ec:	f003 0302 	and.w	r3, r3, #2
 80012f0:	9308      	str	r3, [sp, #32]
 80012f2:	9b08      	ldr	r3, [sp, #32]
  __HAL_RCC_GPIOD_CLK_ENABLE();
 80012f4:	6b3b      	ldr	r3, [r7, #48]	; 0x30
 80012f6:	f043 0308 	orr.w	r3, r3, #8
 80012fa:	633b      	str	r3, [r7, #48]	; 0x30
 80012fc:	6b3b      	ldr	r3, [r7, #48]	; 0x30
 80012fe:	f003 0308 	and.w	r3, r3, #8
 8001302:	9309      	str	r3, [sp, #36]	; 0x24
 8001304:	9b09      	ldr	r3, [sp, #36]	; 0x24
  __HAL_RCC_GPIOC_CLK_ENABLE();
 8001306:	6b3b      	ldr	r3, [r7, #48]	; 0x30
 8001308:	f043 0304 	orr.w	r3, r3, #4
 800130c:	633b      	str	r3, [r7, #48]	; 0x30
 800130e:	6b3b      	ldr	r3, [r7, #48]	; 0x30
 8001310:	f003 0304 	and.w	r3, r3, #4
 8001314:	930a      	str	r3, [sp, #40]	; 0x28
 8001316:	9b0a      	ldr	r3, [sp, #40]	; 0x28
  __HAL_RCC_GPIOA_CLK_ENABLE();
 8001318:	6b3b      	ldr	r3, [r7, #48]	; 0x30
 800131a:	f043 0301 	orr.w	r3, r3, #1
 800131e:	633b      	str	r3, [r7, #48]	; 0x30
 8001320:	6b3b      	ldr	r3, [r7, #48]	; 0x30
 8001322:	f003 0301 	and.w	r3, r3, #1
 8001326:	930b      	str	r3, [sp, #44]	; 0x2c
 8001328:	9b0b      	ldr	r3, [sp, #44]	; 0x2c
  __HAL_RCC_GPIOJ_CLK_ENABLE();
 800132a:	6b3b      	ldr	r3, [r7, #48]	; 0x30
 800132c:	f443 7300 	orr.w	r3, r3, #512	; 0x200
 8001330:	633b      	str	r3, [r7, #48]	; 0x30
 8001332:	6b3b      	ldr	r3, [r7, #48]	; 0x30
 8001334:	f403 7300 	and.w	r3, r3, #512	; 0x200
 8001338:	930c      	str	r3, [sp, #48]	; 0x30
 800133a:	9b0c      	ldr	r3, [sp, #48]	; 0x30
  __HAL_RCC_GPIOI_CLK_ENABLE();
 800133c:	6b3b      	ldr	r3, [r7, #48]	; 0x30
 800133e:	f443 7380 	orr.w	r3, r3, #256	; 0x100
 8001342:	633b      	str	r3, [r7, #48]	; 0x30
 8001344:	6b3b      	ldr	r3, [r7, #48]	; 0x30
 8001346:	f403 7380 	and.w	r3, r3, #256	; 0x100
 800134a:	930d      	str	r3, [sp, #52]	; 0x34
 800134c:	9b0d      	ldr	r3, [sp, #52]	; 0x34
  __HAL_RCC_GPIOK_CLK_ENABLE();
 800134e:	6b3b      	ldr	r3, [r7, #48]	; 0x30
 8001350:	f443 6380 	orr.w	r3, r3, #1024	; 0x400
 8001354:	633b      	str	r3, [r7, #48]	; 0x30
 8001356:	6b3b      	ldr	r3, [r7, #48]	; 0x30
 8001358:	f403 6380 	and.w	r3, r3, #1024	; 0x400
 800135c:	930e      	str	r3, [sp, #56]	; 0x38
 800135e:	9b0e      	ldr	r3, [sp, #56]	; 0x38
  __HAL_RCC_GPIOF_CLK_ENABLE();
 8001360:	6b3b      	ldr	r3, [r7, #48]	; 0x30
 8001362:	f043 0320 	orr.w	r3, r3, #32
 8001366:	633b      	str	r3, [r7, #48]	; 0x30
 8001368:	6b3b      	ldr	r3, [r7, #48]	; 0x30
 800136a:	f003 0320 	and.w	r3, r3, #32
 800136e:	930f      	str	r3, [sp, #60]	; 0x3c
 8001370:	9b0f      	ldr	r3, [sp, #60]	; 0x3c
  __HAL_RCC_GPIOH_CLK_ENABLE();
 8001372:	6b3b      	ldr	r3, [r7, #48]	; 0x30
 8001374:	f043 0380 	orr.w	r3, r3, #128	; 0x80
 8001378:	633b      	str	r3, [r7, #48]	; 0x30
 800137a:	6b3b      	ldr	r3, [r7, #48]	; 0x30
  GPIO_InitStruct.Mode = GPIO_MODE_AF_PP;
 800137c:	9512      	str	r5, [sp, #72]	; 0x48
  __HAL_RCC_GPIOH_CLK_ENABLE();
 800137e:	f003 0380 	and.w	r3, r3, #128	; 0x80
  GPIO_InitStruct.Pull = GPIO_NOPULL;
 8001382:	9413      	str	r4, [sp, #76]	; 0x4c
  GPIO_InitStruct.Speed = GPIO_SPEED_FREQ_LOW;
 8001384:	9414      	str	r4, [sp, #80]	; 0x50
  __HAL_RCC_GPIOH_CLK_ENABLE();
 8001386:	9310      	str	r3, [sp, #64]	; 0x40
 8001388:	9b10      	ldr	r3, [sp, #64]	; 0x40
  GPIO_InitStruct.Pin = SAI1_FSA_Pin|SAI1_SDB_Pin|SAI1_SCKA_Pin|SAI1_SDA_Pin;
 800138a:	2378      	movs	r3, #120	; 0x78
 800138c:	9311      	str	r3, [sp, #68]	; 0x44
  GPIO_InitStruct.Alternate = GPIO_AF6_SAI1;
 800138e:	2306      	movs	r3, #6
 8001390:	9315      	str	r3, [sp, #84]	; 0x54
  HAL_GPIO_Init(GPIOE, &GPIO_InitStruct);
 8001392:	f7ff fa89 	bl	80008a8 <HAL_GPIO_Init>
  GPIO_InitStruct.Alternate = GPIO_AF9_QUADSPI;
 8001396:	2309      	movs	r3, #9
  HAL_GPIO_Init(QSPI_D2_GPIO_Port, &GPIO_InitStruct);
 8001398:	a911      	add	r1, sp, #68	; 0x44
 800139a:	4867      	ldr	r0, [pc, #412]	; (8001538 <main+0x2a4>)
  GPIO_InitStruct.Mode = GPIO_MODE_AF_PP;
 800139c:	9512      	str	r5, [sp, #72]	; 0x48
  GPIO_InitStruct.Speed = GPIO_SPEED_FREQ_VERY_HIGH;
 800139e:	9614      	str	r6, [sp, #80]	; 0x50
  GPIO_InitStruct.Alternate = GPIO_AF9_QUADSPI;
 80013a0:	9315      	str	r3, [sp, #84]	; 0x54
  GPIO_InitStruct.Pin = QSPI_D2_Pin;
 80013a2:	f8cd 9044 	str.w	r9, [sp, #68]	; 0x44
  GPIO_InitStruct.Pull = GPIO_NOPULL;
 80013a6:	9413      	str	r4, [sp, #76]	; 0x4c
  HAL_GPIO_Init(QSPI_D2_GPIO_Port, &GPIO_InitStruct);
 80013a8:	f7ff fa7e 	bl	80008a8 <HAL_GPIO_Init>
  GPIO_InitStruct.Pin = RMII_TXD1_Pin|RMII_TXD0_Pin|RMII_TX_EN_Pin;
 80013ac:	f44f 43d0 	mov.w	r3, #26624	; 0x6800
  HAL_GPIO_Init(GPIOG, &GPIO_InitStruct);
 80013b0:	a911      	add	r1, sp, #68	; 0x44
 80013b2:	4862      	ldr	r0, [pc, #392]	; (800153c <main+0x2a8>)
  GPIO_InitStruct.Pin = RMII_TXD1_Pin|RMII_TXD0_Pin|RMII_TX_EN_Pin;
 80013b4:	9311      	str	r3, [sp, #68]	; 0x44
  GPIO_InitStruct.Alternate = GPIO_AF11_ETH;
 80013b6:	230b      	movs	r3, #11
  GPIO_InitStruct.Mode = GPIO_MODE_AF_PP;
 80013b8:	9512      	str	r5, [sp, #72]	; 0x48
  GPIO_InitStruct.Speed = GPIO_SPEED_FREQ_VERY_HIGH;
 80013ba:	9614      	str	r6, [sp, #80]	; 0x50
  GPIO_InitStruct.Alternate = GPIO_AF11_ETH;
 80013bc:	9315      	str	r3, [sp, #84]	; 0x54
  GPIO_InitStruct.Pull = GPIO_NOPULL;
 80013be:	9413      	str	r4, [sp, #76]	; 0x4c
  HAL_GPIO_Init(GPIOG, &GPIO_InitStruct);
 80013c0:	f7ff fa72 	bl	80008a8 <HAL_GPIO_Init>
  GPIO_InitStruct.Pin = FMC_NBL1_Pin|FMC_NBL0_Pin|FMC_D5_Pin|FMC_D6_Pin 
 80013c4:	f64f 7383 	movw	r3, #65411	; 0xff83
  HAL_GPIO_Init(GPIOE, &GPIO_InitStruct);
 80013c8:	a911      	add	r1, sp, #68	; 0x44
 80013ca:	485b      	ldr	r0, [pc, #364]	; (8001538 <main+0x2a4>)
  GPIO_InitStruct.Pin = FMC_NBL1_Pin|FMC_NBL0_Pin|FMC_D5_Pin|FMC_D6_Pin 
 80013cc:	9311      	str	r3, [sp, #68]	; 0x44
  GPIO_InitStruct.Mode = GPIO_MODE_AF_PP;
 80013ce:	9512      	str	r5, [sp, #72]	; 0x48
  GPIO_InitStruct.Speed = GPIO_SPEED_FREQ_VERY_HIGH;
 80013d0:	9614      	str	r6, [sp, #80]	; 0x50
  GPIO_InitStruct.Alternate = GPIO_AF12_FMC;
 80013d2:	f8cd a054 	str.w	sl, [sp, #84]	; 0x54
  GPIO_InitStruct.Pull = GPIO_NOPULL;
 80013d6:	9413      	str	r4, [sp, #76]	; 0x4c
  HAL_GPIO_Init(GPIOE, &GPIO_InitStruct);
 80013d8:	f7ff fa66 	bl	80008a8 <HAL_GPIO_Init>
  GPIO_InitStruct.Pin = ARDUINO_SCL_D15_Pin|ARDUINO_SDA_D14_Pin;
 80013dc:	f44f 7340 	mov.w	r3, #768	; 0x300
  HAL_GPIO_Init(GPIOB, &GPIO_InitStruct);
 80013e0:	a911      	add	r1, sp, #68	; 0x44
 80013e2:	4857      	ldr	r0, [pc, #348]	; (8001540 <main+0x2ac>)
  GPIO_InitStruct.Pin = ARDUINO_SCL_D15_Pin|ARDUINO_SDA_D14_Pin;
 80013e4:	9311      	str	r3, [sp, #68]	; 0x44
  GPIO_InitStruct.Mode = GPIO_MODE_AF_OD;
 80013e6:	2312      	movs	r3, #18
  GPIO_InitStruct.Pull = GPIO_PULLUP;
 80013e8:	f8cd b04c 	str.w	fp, [sp, #76]	; 0x4c
  GPIO_InitStruct.Mode = GPIO_MODE_AF_OD;
 80013ec:	9312      	str	r3, [sp, #72]	; 0x48
  GPIO_InitStruct.Speed = GPIO_SPEED_FREQ_LOW;
 80013ee:	9414      	str	r4, [sp, #80]	; 0x50
  GPIO_InitStruct.Alternate = GPIO_AF4_I2C1;
 80013f0:	f8cd 9054 	str.w	r9, [sp, #84]	; 0x54
  HAL_GPIO_Init(GPIOB, &GPIO_InitStruct);
 80013f4:	f7ff fa58 	bl	80008a8 <HAL_GPIO_Init>
  GPIO_InitStruct.Pin = ULPI_D7_Pin|ULPI_D6_Pin|ULPI_D5_Pin|ULPI_D3_Pin 
 80013f8:	f643 4323 	movw	r3, #15395	; 0x3c23
  HAL_GPIO_Init(GPIOB, &GPIO_InitStruct);
 80013fc:	a911      	add	r1, sp, #68	; 0x44
 80013fe:	4850      	ldr	r0, [pc, #320]	; (8001540 <main+0x2ac>)
  GPIO_InitStruct.Pin = ULPI_D7_Pin|ULPI_D6_Pin|ULPI_D5_Pin|ULPI_D3_Pin 
 8001400:	9311      	str	r3, [sp, #68]	; 0x44
  GPIO_InitStruct.Mode = GPIO_MODE_AF_PP;
 8001402:	9512      	str	r5, [sp, #72]	; 0x48
  GPIO_InitStruct.Speed = GPIO_SPEED_FREQ_VERY_HIGH;
 8001404:	9614      	str	r6, [sp, #80]	; 0x50
  GPIO_InitStruct.Pull = GPIO_NOPULL;
 8001406:	9413      	str	r4, [sp, #76]	; 0x4c
  GPIO_InitStruct.Alternate = GPIO_AF10_OTG_HS;
 8001408:	f8cd 8054 	str.w	r8, [sp, #84]	; 0x54
  HAL_GPIO_Init(GPIOB, &GPIO_InitStruct);
 800140c:	f7ff fa4c 	bl	80008a8 <HAL_GPIO_Init>

  /*Configure GPIO pins : uSD_D3_Pin uSD_D2_Pin */
  GPIO_InitStruct.Pin = uSD_D3_Pin|uSD_D2_Pin;
 8001410:	2318      	movs	r3, #24
  GPIO_InitStruct.Mode = GPIO_MODE_AF_PP;
  GPIO_InitStruct.Pull = GPIO_NOPULL;
  GPIO_InitStruct.Speed = GPIO_SPEED_FREQ_VERY_HIGH;
  GPIO_InitStruct.Alternate = GPIO_AF10_SDMMC2;
  HAL_GPIO_Init(GPIOB, &GPIO_InitStruct);
 8001412:	a911      	add	r1, sp, #68	; 0x44
 8001414:	484a      	ldr	r0, [pc, #296]	; (8001540 <main+0x2ac>)
  GPIO_InitStruct.Pin = uSD_D3_Pin|uSD_D2_Pin;
 8001416:	9311      	str	r3, [sp, #68]	; 0x44
  GPIO_InitStruct.Mode = GPIO_MODE_AF_PP;
 8001418:	9512      	str	r5, [sp, #72]	; 0x48
  GPIO_InitStruct.Speed = GPIO_SPEED_FREQ_VERY_HIGH;
 800141a:	9614      	str	r6, [sp, #80]	; 0x50
  GPIO_InitStruct.Pull = GPIO_NOPULL;
 800141c:	9413      	str	r4, [sp, #76]	; 0x4c
  GPIO_InitStruct.Alternate = GPIO_AF10_SDMMC2;
 800141e:	f8cd 8054 	str.w	r8, [sp, #84]	; 0x54
  HAL_GPIO_Init(GPIOB, &GPIO_InitStruct);
 8001422:	f7ff fa41 	bl	80008a8 <HAL_GPIO_Init>

  /*Configure GPIO pins : uSD_CMD_Pin uSD_CLK_Pin */
  GPIO_InitStruct.Pin = uSD_CMD_Pin|uSD_CLK_Pin;
 8001426:	23c0      	movs	r3, #192	; 0xc0
  GPIO_InitStruct.Mode = GPIO_MODE_AF_PP;
  GPIO_InitStruct.Pull = GPIO_NOPULL;
  GPIO_InitStruct.Speed = GPIO_SPEED_FREQ_VERY_HIGH;
  GPIO_InitStruct.Alternate = GPIO_AF11_SDMMC2;
  HAL_GPIO_Init(GPIOD, &GPIO_InitStruct);
 8001428:	a911      	add	r1, sp, #68	; 0x44
 800142a:	4846      	ldr	r0, [pc, #280]	; (8001544 <main+0x2b0>)
  GPIO_InitStruct.Pin = uSD_CMD_Pin|uSD_CLK_Pin;
 800142c:	9311      	str	r3, [sp, #68]	; 0x44
  GPIO_InitStruct.Alternate = GPIO_AF11_SDMMC2;
 800142e:	230b      	movs	r3, #11
  GPIO_InitStruct.Mode = GPIO_MODE_AF_PP;
 8001430:	9512      	str	r5, [sp, #72]	; 0x48
  GPIO_InitStruct.Speed = GPIO_SPEED_FREQ_VERY_HIGH;
 8001432:	9614      	str	r6, [sp, #80]	; 0x50
  GPIO_InitStruct.Alternate = GPIO_AF11_SDMMC2;
 8001434:	9315      	str	r3, [sp, #84]	; 0x54
  GPIO_InitStruct.Pull = GPIO_NOPULL;
 8001436:	9413      	str	r4, [sp, #76]	; 0x4c
  HAL_GPIO_Init(GPIOD, &GPIO_InitStruct);
 8001438:	f7ff fa36 	bl	80008a8 <HAL_GPIO_Init>

  /*Configure GPIO pin : WIFI_RX_Pin */
  GPIO_InitStruct.Pin = WIFI_RX_Pin;
 800143c:	f44f 5380 	mov.w	r3, #4096	; 0x1000
  GPIO_InitStruct.Mode = GPIO_MODE_AF_PP;
  GPIO_InitStruct.Pull = GPIO_NOPULL;
  GPIO_InitStruct.Speed = GPIO_SPEED_FREQ_VERY_HIGH;
  GPIO_InitStruct.Alternate = GPIO_AF8_UART5;
  HAL_GPIO_Init(WIFI_RX_GPIO_Port, &GPIO_InitStruct);
 8001440:	a911      	add	r1, sp, #68	; 0x44
 8001442:	4841      	ldr	r0, [pc, #260]	; (8001548 <main+0x2b4>)
  GPIO_InitStruct.Pin = WIFI_RX_Pin;
 8001444:	9311      	str	r3, [sp, #68]	; 0x44
  GPIO_InitStruct.Alternate = GPIO_AF8_UART5;
 8001446:	2308      	movs	r3, #8
  GPIO_InitStruct.Mode = GPIO_MODE_AF_PP;
 8001448:	9512      	str	r5, [sp, #72]	; 0x48
  GPIO_InitStruct.Speed = GPIO_SPEED_FREQ_VERY_HIGH;
 800144a:	9614      	str	r6, [sp, #80]	; 0x50
  GPIO_InitStruct.Alternate = GPIO_AF8_UART5;
 800144c:	9315      	str	r3, [sp, #84]	; 0x54
  GPIO_InitStruct.Pull = GPIO_NOPULL;
 800144e:	9413      	str	r4, [sp, #76]	; 0x4c
  HAL_GPIO_Init(WIFI_RX_GPIO_Port, &GPIO_InitStruct);
 8001450:	f7ff fa2a 	bl	80008a8 <HAL_GPIO_Init>

  /*Configure GPIO pin : AUDIO_SDA_Pin */
  GPIO_InitStruct.Pin = AUDIO_SDA_Pin;
 8001454:	2380      	movs	r3, #128	; 0x80
  GPIO_InitStruct.Mode = GPIO_MODE_AF_OD;
  GPIO_InitStruct.Pull = GPIO_PULLUP;
  GPIO_InitStruct.Speed = GPIO_SPEED_FREQ_VERY_HIGH;
  GPIO_InitStruct.Alternate = GPIO_AF11_I2C4;
  HAL_GPIO_Init(AUDIO_SDA_GPIO_Port, &GPIO_InitStruct);
 8001456:	a911      	add	r1, sp, #68	; 0x44
 8001458:	4839      	ldr	r0, [pc, #228]	; (8001540 <main+0x2ac>)
  GPIO_InitStruct.Pin = AUDIO_SDA_Pin;
 800145a:	9311      	str	r3, [sp, #68]	; 0x44
  GPIO_InitStruct.Mode = GPIO_MODE_AF_OD;
 800145c:	2312      	movs	r3, #18
  GPIO_InitStruct.Speed = GPIO_SPEED_FREQ_VERY_HIGH;
 800145e:	9614      	str	r6, [sp, #80]	; 0x50
  GPIO_InitStruct.Mode = GPIO_MODE_AF_OD;
 8001460:	9312      	str	r3, [sp, #72]	; 0x48
  GPIO_InitStruct.Alternate = GPIO_AF11_I2C4;
 8001462:	230b      	movs	r3, #11
  GPIO_InitStruct.Pull = GPIO_PULLUP;
 8001464:	f8cd b04c 	str.w	fp, [sp, #76]	; 0x4c
  GPIO_InitStruct.Alternate = GPIO_AF11_I2C4;
 8001468:	9315      	str	r3, [sp, #84]	; 0x54
  HAL_GPIO_Init(AUDIO_SDA_GPIO_Port, &GPIO_InitStruct);
 800146a:	f7ff fa1d 	bl	80008a8 <HAL_GPIO_Init>

  /*Configure GPIO pin : QSPI_NCS_Pin */
  GPIO_InitStruct.Pin = QSPI_NCS_Pin;
 800146e:	2340      	movs	r3, #64	; 0x40
  GPIO_InitStruct.Mode = GPIO_MODE_AF_PP;
  GPIO_InitStruct.Pull = GPIO_NOPULL;
  GPIO_InitStruct.Speed = GPIO_SPEED_FREQ_VERY_HIGH;
  GPIO_InitStruct.Alternate = GPIO_AF10_QUADSPI;
  HAL_GPIO_Init(QSPI_NCS_GPIO_Port, &GPIO_InitStruct);
 8001470:	a911      	add	r1, sp, #68	; 0x44
 8001472:	4833      	ldr	r0, [pc, #204]	; (8001540 <main+0x2ac>)
  GPIO_InitStruct.Pin = QSPI_NCS_Pin;
 8001474:	9311      	str	r3, [sp, #68]	; 0x44
  GPIO_InitStruct.Mode = GPIO_MODE_AF_PP;
 8001476:	9512      	str	r5, [sp, #72]	; 0x48
  GPIO_InitStruct.Speed = GPIO_SPEED_FREQ_VERY_HIGH;
 8001478:	9614      	str	r6, [sp, #80]	; 0x50
  GPIO_InitStruct.Pull = GPIO_NOPULL;
 800147a:	9413      	str	r4, [sp, #76]	; 0x4c
  GPIO_InitStruct.Alternate = GPIO_AF10_QUADSPI;
 800147c:	f8cd 8054 	str.w	r8, [sp, #84]	; 0x54
  HAL_GPIO_Init(QSPI_NCS_GPIO_Port, &GPIO_InitStruct);
 8001480:	f7ff fa12 	bl	80008a8 <HAL_GPIO_Init>

  /*Configure GPIO pins : FMC_SDNCAS_Pin FMC_SDCLK_Pin FMC_A11_Pin FMC_A12_Pin 
                           FMC_A10_Pin FMC_BA1_Pin FMC_BA0_Pin */
  GPIO_InitStruct.Pin = FMC_SDNCAS_Pin|FMC_SDCLK_Pin|FMC_A11_Pin|FMC_A12_Pin 
 8001484:	f248 1337 	movw	r3, #33079	; 0x8137
                          |FMC_A10_Pin|FMC_BA1_Pin|FMC_BA0_Pin;
  GPIO_InitStruct.Mode = GPIO_MODE_AF_PP;
  GPIO_InitStruct.Pull = GPIO_NOPULL;
  GPIO_InitStruct.Speed = GPIO_SPEED_FREQ_VERY_HIGH;
  GPIO_InitStruct.Alternate = GPIO_AF12_FMC;
  HAL_GPIO_Init(GPIOG, &GPIO_InitStruct);
 8001488:	a911      	add	r1, sp, #68	; 0x44
 800148a:	482c      	ldr	r0, [pc, #176]	; (800153c <main+0x2a8>)
  GPIO_InitStruct.Pin = FMC_SDNCAS_Pin|FMC_SDCLK_Pin|FMC_A11_Pin|FMC_A12_Pin 
 800148c:	9311      	str	r3, [sp, #68]	; 0x44
  GPIO_InitStruct.Mode = GPIO_MODE_AF_PP;
 800148e:	9512      	str	r5, [sp, #72]	; 0x48
  GPIO_InitStruct.Speed = GPIO_SPEED_FREQ_VERY_HIGH;
 8001490:	9614      	str	r6, [sp, #80]	; 0x50
  GPIO_InitStruct.Alternate = GPIO_AF12_FMC;
 8001492:	f8cd a054 	str.w	sl, [sp, #84]	; 0x54
  GPIO_InitStruct.Pull = GPIO_NOPULL;
 8001496:	9413      	str	r4, [sp, #76]	; 0x4c
  HAL_GPIO_Init(GPIOG, &GPIO_InitStruct);
 8001498:	f7ff fa06 	bl	80008a8 <HAL_GPIO_Init>

  /*Configure GPIO pins : LD_USER1_Pin Audio_INT_Pin WIFI_RST_Pin ARD_D8_Pin 
                           LD_USER2_Pin ARD_D7_Pin ARD_D4_Pin ARD_D2_Pin */
  GPIO_InitStruct.Pin = LD_USER1_Pin|Audio_INT_Pin|WIFI_RST_Pin|ARD_D8_Pin 
 800149c:	f247 033b 	movw	r3, #28731	; 0x703b
                          |LD_USER2_Pin|ARD_D7_Pin|ARD_D4_Pin|ARD_D2_Pin;
  GPIO_InitStruct.Mode = GPIO_MODE_INPUT;
  GPIO_InitStruct.Pull = GPIO_NOPULL;
  HAL_GPIO_Init(GPIOJ, &GPIO_InitStruct);
 80014a0:	a911      	add	r1, sp, #68	; 0x44
 80014a2:	482a      	ldr	r0, [pc, #168]	; (800154c <main+0x2b8>)
  GPIO_InitStruct.Pin = LD_USER1_Pin|Audio_INT_Pin|WIFI_RST_Pin|ARD_D8_Pin 
 80014a4:	9311      	str	r3, [sp, #68]	; 0x44
  GPIO_InitStruct.Mode = GPIO_MODE_INPUT;
 80014a6:	9412      	str	r4, [sp, #72]	; 0x48
  GPIO_InitStruct.Pull = GPIO_NOPULL;
 80014a8:	9413      	str	r4, [sp, #76]	; 0x4c
  HAL_GPIO_Init(GPIOJ, &GPIO_InitStruct);
 80014aa:	f7ff f9fd 	bl	80008a8 <HAL_GPIO_Init>

  /*Configure GPIO pins : FMC_D2_Pin FMC_D3_Pin FMC_D1_Pin FMC_D15_Pin 
                           FMC_D0_Pin FMC_D14_Pin FMC_D13_Pin */
  GPIO_InitStruct.Pin = FMC_D2_Pin|FMC_D3_Pin|FMC_D1_Pin|FMC_D15_Pin 
 80014ae:	f24c 7303 	movw	r3, #50947	; 0xc703
                          |FMC_D0_Pin|FMC_D14_Pin|FMC_D13_Pin;
  GPIO_InitStruct.Mode = GPIO_MODE_AF_PP;
  GPIO_InitStruct.Pull = GPIO_NOPULL;
  GPIO_InitStruct.Speed = GPIO_SPEED_FREQ_VERY_HIGH;
  GPIO_InitStruct.Alternate = GPIO_AF12_FMC;
  HAL_GPIO_Init(GPIOD, &GPIO_InitStruct);
 80014b2:	a911      	add	r1, sp, #68	; 0x44
 80014b4:	4823      	ldr	r0, [pc, #140]	; (8001544 <main+0x2b0>)
  GPIO_InitStruct.Pin = FMC_D2_Pin|FMC_D3_Pin|FMC_D1_Pin|FMC_D15_Pin 
 80014b6:	9311      	str	r3, [sp, #68]	; 0x44
  GPIO_InitStruct.Mode = GPIO_MODE_AF_PP;
 80014b8:	9512      	str	r5, [sp, #72]	; 0x48
  GPIO_InitStruct.Speed = GPIO_SPEED_FREQ_VERY_HIGH;
 80014ba:	9614      	str	r6, [sp, #80]	; 0x50
  GPIO_InitStruct.Alternate = GPIO_AF12_FMC;
 80014bc:	f8cd a054 	str.w	sl, [sp, #84]	; 0x54
  GPIO_InitStruct.Pull = GPIO_NOPULL;
 80014c0:	9413      	str	r4, [sp, #76]	; 0x4c
  HAL_GPIO_Init(GPIOD, &GPIO_InitStruct);
 80014c2:	f7ff f9f1 	bl	80008a8 <HAL_GPIO_Init>

  /*Configure GPIO pins : DFSDM_DATIN5_Pin DFSDM_DATIN1_Pin */
  GPIO_InitStruct.Pin = DFSDM_DATIN5_Pin|DFSDM_DATIN1_Pin;
 80014c6:	f640 0308 	movw	r3, #2056	; 0x808
  GPIO_InitStruct.Mode = GPIO_MODE_AF_PP;
  GPIO_InitStruct.Pull = GPIO_NOPULL;
  GPIO_InitStruct.Speed = GPIO_SPEED_FREQ_LOW;
  GPIO_InitStruct.Alternate = GPIO_AF3_DFSDM1;
  HAL_GPIO_Init(GPIOC, &GPIO_InitStruct);
 80014ca:	a911      	add	r1, sp, #68	; 0x44
 80014cc:	481e      	ldr	r0, [pc, #120]	; (8001548 <main+0x2b4>)
  GPIO_InitStruct.Pin = DFSDM_DATIN5_Pin|DFSDM_DATIN1_Pin;
 80014ce:	9311      	str	r3, [sp, #68]	; 0x44
  GPIO_InitStruct.Mode = GPIO_MODE_AF_PP;
 80014d0:	9512      	str	r5, [sp, #72]	; 0x48
  GPIO_InitStruct.Alternate = GPIO_AF3_DFSDM1;
 80014d2:	9615      	str	r6, [sp, #84]	; 0x54
  GPIO_InitStruct.Pull = GPIO_NOPULL;
 80014d4:	9413      	str	r4, [sp, #76]	; 0x4c
  GPIO_InitStruct.Speed = GPIO_SPEED_FREQ_LOW;
 80014d6:	9414      	str	r4, [sp, #80]	; 0x50
  HAL_GPIO_Init(GPIOC, &GPIO_InitStruct);
 80014d8:	f7ff f9e6 	bl	80008a8 <HAL_GPIO_Init>

  /*Configure GPIO pins : QSPI_D1_Pin QSPI_D0_Pin */
  GPIO_InitStruct.Pin = QSPI_D1_Pin|QSPI_D0_Pin;
 80014dc:	f44f 63c0 	mov.w	r3, #1536	; 0x600
  GPIO_InitStruct.Mode = GPIO_MODE_AF_PP;
  GPIO_InitStruct.Pull = GPIO_NOPULL;
  GPIO_InitStruct.Speed = GPIO_SPEED_FREQ_VERY_HIGH;
  GPIO_InitStruct.Alternate = GPIO_AF9_QUADSPI;
  HAL_GPIO_Init(GPIOC, &GPIO_InitStruct);
 80014e0:	a911      	add	r1, sp, #68	; 0x44
 80014e2:	4819      	ldr	r0, [pc, #100]	; (8001548 <main+0x2b4>)
  GPIO_InitStruct.Pin = QSPI_D1_Pin|QSPI_D0_Pin;
 80014e4:	9311      	str	r3, [sp, #68]	; 0x44
 80014e6:	9303      	str	r3, [sp, #12]
  GPIO_InitStruct.Alternate = GPIO_AF9_QUADSPI;
 80014e8:	2309      	movs	r3, #9
  GPIO_InitStruct.Mode = GPIO_MODE_AF_PP;
 80014ea:	9512      	str	r5, [sp, #72]	; 0x48
  GPIO_InitStruct.Speed = GPIO_SPEED_FREQ_VERY_HIGH;
 80014ec:	9614      	str	r6, [sp, #80]	; 0x50
  GPIO_InitStruct.Alternate = GPIO_AF9_QUADSPI;
 80014ee:	9315      	str	r3, [sp, #84]	; 0x54
  GPIO_InitStruct.Pull = GPIO_NOPULL;
 80014f0:	9413      	str	r4, [sp, #76]	; 0x4c
  HAL_GPIO_Init(GPIOC, &GPIO_InitStruct);
 80014f2:	f7ff f9d9 	bl	80008a8 <HAL_GPIO_Init>

  /*Configure GPIO pin : ARD_D13_SCK_Pin */
  GPIO_InitStruct.Pin = ARD_D13_SCK_Pin;
 80014f6:	f44f 5380 	mov.w	r3, #4096	; 0x1000
  GPIO_InitStruct.Mode = GPIO_MODE_AF_PP;
  GPIO_InitStruct.Pull = GPIO_NOPULL;
  GPIO_InitStruct.Speed = GPIO_SPEED_FREQ_LOW;
  GPIO_InitStruct.Alternate = GPIO_AF5_SPI2;
  HAL_GPIO_Init(ARD_D13_SCK_GPIO_Port, &GPIO_InitStruct);
 80014fa:	a911      	add	r1, sp, #68	; 0x44
 80014fc:	4814      	ldr	r0, [pc, #80]	; (8001550 <main+0x2bc>)
  GPIO_InitStruct.Pin = ARD_D13_SCK_Pin;
 80014fe:	9311      	str	r3, [sp, #68]	; 0x44
  GPIO_InitStruct.Alternate = GPIO_AF5_SPI2;
 8001500:	2305      	movs	r3, #5
  GPIO_InitStruct.Mode = GPIO_MODE_AF_PP;
 8001502:	9512      	str	r5, [sp, #72]	; 0x48
  GPIO_InitStruct.Alternate = GPIO_AF5_SPI2;
 8001504:	9315      	str	r3, [sp, #84]	; 0x54
  GPIO_InitStruct.Pull = GPIO_NOPULL;
 8001506:	9413      	str	r4, [sp, #76]	; 0x4c
  GPIO_InitStruct.Speed = GPIO_SPEED_FREQ_LOW;
 8001508:	9414      	str	r4, [sp, #80]	; 0x50
  HAL_GPIO_Init(ARD_D13_SCK_GPIO_Port, &GPIO_InitStruct);
 800150a:	f7ff f9cd 	bl	80008a8 <HAL_GPIO_Init>

  /*Configure GPIO pins : NC4_Pin NC5_Pin uSD_Detect_Pin */
  GPIO_InitStruct.Pin = NC4_Pin|NC5_Pin|uSD_Detect_Pin;
 800150e:	f44f 4211 	mov.w	r2, #37120	; 0x9100
  GPIO_InitStruct.Mode = GPIO_MODE_INPUT;
  GPIO_InitStruct.Pull = GPIO_NOPULL;
  HAL_GPIO_Init(GPIOI, &GPIO_InitStruct);
 8001512:	a911      	add	r1, sp, #68	; 0x44
 8001514:	480f      	ldr	r0, [pc, #60]	; (8001554 <main+0x2c0>)
  GPIO_InitStruct.Pin = NC4_Pin|NC5_Pin|uSD_Detect_Pin;
 8001516:	9211      	str	r2, [sp, #68]	; 0x44
  GPIO_InitStruct.Mode = GPIO_MODE_INPUT;
 8001518:	9412      	str	r4, [sp, #72]	; 0x48
  GPIO_InitStruct.Pull = GPIO_NOPULL;
 800151a:	9413      	str	r4, [sp, #76]	; 0x4c
  HAL_GPIO_Init(GPIOI, &GPIO_InitStruct);
 800151c:	f7ff f9c4 	bl	80008a8 <HAL_GPIO_Init>

  /*Configure GPIO pins : FMC_NBL2_Pin D27_Pin D26_Pin FMC_NBL3_Pin 
                           D29_Pin D31_Pin D28_Pin D25_Pin 
                           D30_Pin D24_Pin */
  GPIO_InitStruct.Pin = FMC_NBL2_Pin|D27_Pin|D26_Pin|FMC_NBL3_Pin 
 8001520:	f240 62ff 	movw	r2, #1791	; 0x6ff
                          |D30_Pin|D24_Pin;
  GPIO_InitStruct.Mode = GPIO_MODE_AF_PP;
  GPIO_InitStruct.Pull = GPIO_NOPULL;
  GPIO_InitStruct.Speed = GPIO_SPEED_FREQ_VERY_HIGH;
  GPIO_InitStruct.Alternate = GPIO_AF12_FMC;
  HAL_GPIO_Init(GPIOI, &GPIO_InitStruct);
 8001524:	a911      	add	r1, sp, #68	; 0x44
 8001526:	480b      	ldr	r0, [pc, #44]	; (8001554 <main+0x2c0>)
  GPIO_InitStruct.Pin = FMC_NBL2_Pin|D27_Pin|D26_Pin|FMC_NBL3_Pin 
 8001528:	9211      	str	r2, [sp, #68]	; 0x44
  GPIO_InitStruct.Mode = GPIO_MODE_AF_PP;
 800152a:	9512      	str	r5, [sp, #72]	; 0x48
  GPIO_InitStruct.Speed = GPIO_SPEED_FREQ_VERY_HIGH;
 800152c:	9614      	str	r6, [sp, #80]	; 0x50
  GPIO_InitStruct.Alternate = GPIO_AF12_FMC;
 800152e:	f8cd a054 	str.w	sl, [sp, #84]	; 0x54
 8001532:	e011      	b.n	8001558 <main+0x2c4>
 8001534:	40023800 	.word	0x40023800
 8001538:	40021000 	.word	0x40021000
 800153c:	40021800 	.word	0x40021800
 8001540:	40020400 	.word	0x40020400
 8001544:	40020c00 	.word	0x40020c00
 8001548:	40020800 	.word	0x40020800
 800154c:	40022400 	.word	0x40022400
 8001550:	40020000 	.word	0x40020000
 8001554:	40022000 	.word	0x40022000
  GPIO_InitStruct.Pull = GPIO_NOPULL;
 8001558:	9413      	str	r4, [sp, #76]	; 0x4c
  HAL_GPIO_Init(GPIOI, &GPIO_InitStruct);
 800155a:	f7ff f9a5 	bl	80008a8 <HAL_GPIO_Init>

  /*Configure GPIO pins : NC3_Pin NC2_Pin NC1_Pin NC8_Pin 
                           NC7_Pin */
  GPIO_InitStruct.Pin = NC3_Pin|NC2_Pin|NC1_Pin|NC8_Pin 
 800155e:	22f8      	movs	r2, #248	; 0xf8
                          |NC7_Pin;
  GPIO_InitStruct.Mode = GPIO_MODE_INPUT;
  GPIO_InitStruct.Pull = GPIO_NOPULL;
  HAL_GPIO_Init(GPIOK, &GPIO_InitStruct);
 8001560:	a911      	add	r1, sp, #68	; 0x44
 8001562:	489f      	ldr	r0, [pc, #636]	; (80017e0 <main+0x54c>)
  GPIO_InitStruct.Pin = NC3_Pin|NC2_Pin|NC1_Pin|NC8_Pin 
 8001564:	9211      	str	r2, [sp, #68]	; 0x44
  GPIO_InitStruct.Mode = GPIO_MODE_INPUT;
 8001566:	9412      	str	r4, [sp, #72]	; 0x48
  GPIO_InitStruct.Pull = GPIO_NOPULL;
 8001568:	9413      	str	r4, [sp, #76]	; 0x4c
  HAL_GPIO_Init(GPIOK, &GPIO_InitStruct);
 800156a:	f7ff f99d 	bl	80008a8 <HAL_GPIO_Init>
  /*Configure GPIO pin : SPDIF_RX_Pin */
  GPIO_InitStruct.Pin = SPDIF_RX_Pin;
  GPIO_InitStruct.Mode = GPIO_MODE_AF_PP;
  GPIO_InitStruct.Pull = GPIO_NOPULL;
  GPIO_InitStruct.Speed = GPIO_SPEED_FREQ_LOW;
  GPIO_InitStruct.Alternate = GPIO_AF7_SPDIFRX;
 800156e:	2207      	movs	r2, #7
  GPIO_InitStruct.Pin = SPDIF_RX_Pin;
 8001570:	f44f 5380 	mov.w	r3, #4096	; 0x1000
  HAL_GPIO_Init(SPDIF_RX_GPIO_Port, &GPIO_InitStruct);
 8001574:	a911      	add	r1, sp, #68	; 0x44
 8001576:	489b      	ldr	r0, [pc, #620]	; (80017e4 <main+0x550>)
  GPIO_InitStruct.Alternate = GPIO_AF7_SPDIFRX;
 8001578:	9215      	str	r2, [sp, #84]	; 0x54
 800157a:	9202      	str	r2, [sp, #8]
  GPIO_InitStruct.Pin = SPDIF_RX_Pin;
 800157c:	9311      	str	r3, [sp, #68]	; 0x44
  GPIO_InitStruct.Mode = GPIO_MODE_AF_PP;
 800157e:	9512      	str	r5, [sp, #72]	; 0x48
  GPIO_InitStruct.Pull = GPIO_NOPULL;
 8001580:	9413      	str	r4, [sp, #76]	; 0x4c
  GPIO_InitStruct.Speed = GPIO_SPEED_FREQ_LOW;
 8001582:	9414      	str	r4, [sp, #80]	; 0x50
  HAL_GPIO_Init(SPDIF_RX_GPIO_Port, &GPIO_InitStruct);
 8001584:	f7ff f990 	bl	80008a8 <HAL_GPIO_Init>

  /*Configure GPIO pins : uSD_D1_Pin uSD_D0_Pin */
  GPIO_InitStruct.Pin = uSD_D1_Pin|uSD_D0_Pin;
 8001588:	9b03      	ldr	r3, [sp, #12]
  GPIO_InitStruct.Mode = GPIO_MODE_AF_PP;
  GPIO_InitStruct.Pull = GPIO_NOPULL;
  GPIO_InitStruct.Speed = GPIO_SPEED_FREQ_VERY_HIGH;
  GPIO_InitStruct.Alternate = GPIO_AF11_SDMMC2;
  HAL_GPIO_Init(GPIOG, &GPIO_InitStruct);
 800158a:	a911      	add	r1, sp, #68	; 0x44
 800158c:	4895      	ldr	r0, [pc, #596]	; (80017e4 <main+0x550>)
  GPIO_InitStruct.Pin = uSD_D1_Pin|uSD_D0_Pin;
 800158e:	9311      	str	r3, [sp, #68]	; 0x44
  GPIO_InitStruct.Alternate = GPIO_AF11_SDMMC2;
 8001590:	230b      	movs	r3, #11
  GPIO_InitStruct.Mode = GPIO_MODE_AF_PP;
 8001592:	9512      	str	r5, [sp, #72]	; 0x48
  GPIO_InitStruct.Speed = GPIO_SPEED_FREQ_VERY_HIGH;
 8001594:	9614      	str	r6, [sp, #80]	; 0x50
  GPIO_InitStruct.Alternate = GPIO_AF11_SDMMC2;
 8001596:	9315      	str	r3, [sp, #84]	; 0x54
  GPIO_InitStruct.Pull = GPIO_NOPULL;
 8001598:	9413      	str	r4, [sp, #76]	; 0x4c
  HAL_GPIO_Init(GPIOG, &GPIO_InitStruct);
 800159a:	f7ff f985 	bl	80008a8 <HAL_GPIO_Init>

  /*Configure GPIO pins : RMII_RXER_Pin OTG_FS_OverCurrent_Pin */
  GPIO_InitStruct.Pin = RMII_RXER_Pin|OTG_FS_OverCurrent_Pin;
 800159e:	2330      	movs	r3, #48	; 0x30
  GPIO_InitStruct.Mode = GPIO_MODE_INPUT;
  GPIO_InitStruct.Pull = GPIO_NOPULL;
  HAL_GPIO_Init(GPIOD, &GPIO_InitStruct);
 80015a0:	a911      	add	r1, sp, #68	; 0x44
 80015a2:	4891      	ldr	r0, [pc, #580]	; (80017e8 <main+0x554>)
  GPIO_InitStruct.Pin = RMII_RXER_Pin|OTG_FS_OverCurrent_Pin;
 80015a4:	9311      	str	r3, [sp, #68]	; 0x44
  GPIO_InitStruct.Mode = GPIO_MODE_INPUT;
 80015a6:	9412      	str	r4, [sp, #72]	; 0x48
  GPIO_InitStruct.Pull = GPIO_NOPULL;
 80015a8:	9413      	str	r4, [sp, #76]	; 0x4c
  HAL_GPIO_Init(GPIOD, &GPIO_InitStruct);
 80015aa:	f7ff f97d 	bl	80008a8 <HAL_GPIO_Init>

  /*Configure GPIO pin : DFSDM_CKOUT_Pin */
  GPIO_InitStruct.Pin = DFSDM_CKOUT_Pin;
 80015ae:	2308      	movs	r3, #8
  GPIO_InitStruct.Mode = GPIO_MODE_AF_PP;
  GPIO_InitStruct.Pull = GPIO_NOPULL;
  GPIO_InitStruct.Speed = GPIO_SPEED_FREQ_LOW;
  GPIO_InitStruct.Alternate = GPIO_AF3_DFSDM1;
  HAL_GPIO_Init(DFSDM_CKOUT_GPIO_Port, &GPIO_InitStruct);
 80015b0:	a911      	add	r1, sp, #68	; 0x44
 80015b2:	488d      	ldr	r0, [pc, #564]	; (80017e8 <main+0x554>)
  GPIO_InitStruct.Pin = DFSDM_CKOUT_Pin;
 80015b4:	9311      	str	r3, [sp, #68]	; 0x44
  GPIO_InitStruct.Mode = GPIO_MODE_AF_PP;
 80015b6:	9512      	str	r5, [sp, #72]	; 0x48
  GPIO_InitStruct.Alternate = GPIO_AF3_DFSDM1;
 80015b8:	9615      	str	r6, [sp, #84]	; 0x54
  GPIO_InitStruct.Pull = GPIO_NOPULL;
 80015ba:	9413      	str	r4, [sp, #76]	; 0x4c
  GPIO_InitStruct.Speed = GPIO_SPEED_FREQ_LOW;
 80015bc:	9414      	str	r4, [sp, #80]	; 0x50
  HAL_GPIO_Init(DFSDM_CKOUT_GPIO_Port, &GPIO_InitStruct);
 80015be:	f7ff f973 	bl	80008a8 <HAL_GPIO_Init>

  /*Configure GPIO pin : SPI2_NSS_Pin */
  GPIO_InitStruct.Pin = SPI2_NSS_Pin;
 80015c2:	f44f 6300 	mov.w	r3, #2048	; 0x800
  GPIO_InitStruct.Mode = GPIO_MODE_AF_PP;
  GPIO_InitStruct.Pull = GPIO_NOPULL;
  GPIO_InitStruct.Speed = GPIO_SPEED_FREQ_VERY_HIGH;
  GPIO_InitStruct.Alternate = GPIO_AF5_SPI2;
  HAL_GPIO_Init(SPI2_NSS_GPIO_Port, &GPIO_InitStruct);
 80015c6:	a911      	add	r1, sp, #68	; 0x44
 80015c8:	4888      	ldr	r0, [pc, #544]	; (80017ec <main+0x558>)
  GPIO_InitStruct.Pin = SPI2_NSS_Pin;
 80015ca:	9311      	str	r3, [sp, #68]	; 0x44
 80015cc:	9303      	str	r3, [sp, #12]
  GPIO_InitStruct.Alternate = GPIO_AF5_SPI2;
 80015ce:	2305      	movs	r3, #5
  GPIO_InitStruct.Mode = GPIO_MODE_AF_PP;
 80015d0:	9512      	str	r5, [sp, #72]	; 0x48
  GPIO_InitStruct.Alternate = GPIO_AF5_SPI2;
 80015d2:	9315      	str	r3, [sp, #84]	; 0x54
  GPIO_InitStruct.Speed = GPIO_SPEED_FREQ_VERY_HIGH;
 80015d4:	9614      	str	r6, [sp, #80]	; 0x50
  GPIO_InitStruct.Pull = GPIO_NOPULL;
 80015d6:	9413      	str	r4, [sp, #76]	; 0x4c
  HAL_GPIO_Init(SPI2_NSS_GPIO_Port, &GPIO_InitStruct);
 80015d8:	f7ff f966 	bl	80008a8 <HAL_GPIO_Init>

  /*Configure GPIO pins : FMC_A0_Pin FMC_A1_Pin FMC_A2_Pin FMC_A3_Pin 
                           FMC_A4_Pin FMC_A5_Pin FMC_A6_Pin FMC_A9_Pin 
                           FMC_A7_Pin FMC_A8_Pin FMC_SDNRAS_Pin */
  GPIO_InitStruct.Pin = FMC_A0_Pin|FMC_A1_Pin|FMC_A2_Pin|FMC_A3_Pin 
 80015dc:	f64f 013f 	movw	r1, #63551	; 0xf83f
                          |FMC_A7_Pin|FMC_A8_Pin|FMC_SDNRAS_Pin;
  GPIO_InitStruct.Mode = GPIO_MODE_AF_PP;
  GPIO_InitStruct.Pull = GPIO_NOPULL;
  GPIO_InitStruct.Speed = GPIO_SPEED_FREQ_VERY_HIGH;
  GPIO_InitStruct.Alternate = GPIO_AF12_FMC;
  HAL_GPIO_Init(GPIOF, &GPIO_InitStruct);
 80015e0:	4883      	ldr	r0, [pc, #524]	; (80017f0 <main+0x55c>)
  GPIO_InitStruct.Mode = GPIO_MODE_AF_PP;
 80015e2:	9512      	str	r5, [sp, #72]	; 0x48
  GPIO_InitStruct.Pin = FMC_A0_Pin|FMC_A1_Pin|FMC_A2_Pin|FMC_A3_Pin 
 80015e4:	9111      	str	r1, [sp, #68]	; 0x44
  HAL_GPIO_Init(GPIOF, &GPIO_InitStruct);
 80015e6:	a911      	add	r1, sp, #68	; 0x44
  GPIO_InitStruct.Speed = GPIO_SPEED_FREQ_VERY_HIGH;
 80015e8:	9614      	str	r6, [sp, #80]	; 0x50
  GPIO_InitStruct.Alternate = GPIO_AF12_FMC;
 80015ea:	f8cd a054 	str.w	sl, [sp, #84]	; 0x54
  GPIO_InitStruct.Pull = GPIO_NOPULL;
 80015ee:	9413      	str	r4, [sp, #76]	; 0x4c
  HAL_GPIO_Init(GPIOF, &GPIO_InitStruct);
 80015f0:	f7ff f95a 	bl	80008a8 <HAL_GPIO_Init>
  /*Configure GPIO pin : WIFI_TX_Pin */
  GPIO_InitStruct.Pin = WIFI_TX_Pin;
  GPIO_InitStruct.Mode = GPIO_MODE_AF_PP;
  GPIO_InitStruct.Pull = GPIO_NOPULL;
  GPIO_InitStruct.Speed = GPIO_SPEED_FREQ_VERY_HIGH;
  GPIO_InitStruct.Alternate = GPIO_AF8_UART5;
 80015f4:	2308      	movs	r3, #8
  HAL_GPIO_Init(WIFI_TX_GPIO_Port, &GPIO_InitStruct);
 80015f6:	a911      	add	r1, sp, #68	; 0x44
 80015f8:	487b      	ldr	r0, [pc, #492]	; (80017e8 <main+0x554>)
  GPIO_InitStruct.Alternate = GPIO_AF8_UART5;
 80015fa:	9315      	str	r3, [sp, #84]	; 0x54
  GPIO_InitStruct.Mode = GPIO_MODE_AF_PP;
 80015fc:	9512      	str	r5, [sp, #72]	; 0x48
  GPIO_InitStruct.Speed = GPIO_SPEED_FREQ_VERY_HIGH;
 80015fe:	9614      	str	r6, [sp, #80]	; 0x50
  GPIO_InitStruct.Pin = WIFI_TX_Pin;
 8001600:	f8cd 9044 	str.w	r9, [sp, #68]	; 0x44
  GPIO_InitStruct.Pull = GPIO_NOPULL;
 8001604:	9413      	str	r4, [sp, #76]	; 0x4c
  HAL_GPIO_Init(WIFI_TX_GPIO_Port, &GPIO_InitStruct);
 8001606:	f7ff f94f 	bl	80008a8 <HAL_GPIO_Init>

  /*Configure GPIO pins : D23_Pin D21_Pin D22_Pin FMC_SDNME_Pin 
                           FMC_SDNE0_Pin FMC_SDCKE0_Pin D20_Pin FMC_D_7_Pin 
                           FMC_D19_Pin FMC_D16_Pin FMC_D18_Pin */
  GPIO_InitStruct.Pin = D23_Pin|D21_Pin|D22_Pin|FMC_SDNME_Pin 
 800160a:	f64f 712c 	movw	r1, #65324	; 0xff2c
                          |FMC_D19_Pin|FMC_D16_Pin|FMC_D18_Pin;
  GPIO_InitStruct.Mode = GPIO_MODE_AF_PP;
  GPIO_InitStruct.Pull = GPIO_NOPULL;
  GPIO_InitStruct.Speed = GPIO_SPEED_FREQ_VERY_HIGH;
  GPIO_InitStruct.Alternate = GPIO_AF12_FMC;
  HAL_GPIO_Init(GPIOH, &GPIO_InitStruct);
 800160e:	4879      	ldr	r0, [pc, #484]	; (80017f4 <main+0x560>)
  GPIO_InitStruct.Mode = GPIO_MODE_AF_PP;
 8001610:	9512      	str	r5, [sp, #72]	; 0x48
  GPIO_InitStruct.Pin = D23_Pin|D21_Pin|D22_Pin|FMC_SDNME_Pin 
 8001612:	9111      	str	r1, [sp, #68]	; 0x44
  HAL_GPIO_Init(GPIOH, &GPIO_InitStruct);
 8001614:	a911      	add	r1, sp, #68	; 0x44
  GPIO_InitStruct.Speed = GPIO_SPEED_FREQ_VERY_HIGH;
 8001616:	9614      	str	r6, [sp, #80]	; 0x50
  GPIO_InitStruct.Alternate = GPIO_AF12_FMC;
 8001618:	f8cd a054 	str.w	sl, [sp, #84]	; 0x54
  GPIO_InitStruct.Speed = GPIO_SPEED_FREQ_VERY_HIGH;
  GPIO_InitStruct.Alternate = GPIO_AF8_USART6;
  HAL_GPIO_Init(GPIOC, &GPIO_InitStruct);

  /*Configure GPIO pin : ULPI_NXT_Pin */
  GPIO_InitStruct.Pin = ULPI_NXT_Pin;
 800161c:	f04f 0a10 	mov.w	sl, #16
  GPIO_InitStruct.Pull = GPIO_NOPULL;
 8001620:	9413      	str	r4, [sp, #76]	; 0x4c
  HAL_GPIO_Init(GPIOH, &GPIO_InitStruct);
 8001622:	f7ff f941 	bl	80008a8 <HAL_GPIO_Init>
  GPIO_InitStruct.Pin = VCP_RX_Pin;
 8001626:	f44f 6180 	mov.w	r1, #1024	; 0x400
  GPIO_InitStruct.Alternate = GPIO_AF7_USART1;
 800162a:	9a02      	ldr	r2, [sp, #8]
  HAL_GPIO_Init(VCP_RX_GPIO_Port, &GPIO_InitStruct);
 800162c:	486f      	ldr	r0, [pc, #444]	; (80017ec <main+0x558>)
  GPIO_InitStruct.Pin = VCP_RX_Pin;
 800162e:	9111      	str	r1, [sp, #68]	; 0x44
  HAL_GPIO_Init(VCP_RX_GPIO_Port, &GPIO_InitStruct);
 8001630:	a911      	add	r1, sp, #68	; 0x44
  GPIO_InitStruct.Mode = GPIO_MODE_AF_PP;
 8001632:	9512      	str	r5, [sp, #72]	; 0x48
  GPIO_InitStruct.Speed = GPIO_SPEED_FREQ_VERY_HIGH;
 8001634:	9614      	str	r6, [sp, #80]	; 0x50
  GPIO_InitStruct.Alternate = GPIO_AF7_USART1;
 8001636:	9215      	str	r2, [sp, #84]	; 0x54
  GPIO_InitStruct.Pull = GPIO_NOPULL;
 8001638:	9413      	str	r4, [sp, #76]	; 0x4c
  HAL_GPIO_Init(VCP_RX_GPIO_Port, &GPIO_InitStruct);
 800163a:	f7ff f935 	bl	80008a8 <HAL_GPIO_Init>
  GPIO_InitStruct.Pin = VCP_TX_Pin;
 800163e:	f44f 7100 	mov.w	r1, #512	; 0x200
  GPIO_InitStruct.Alternate = GPIO_AF7_USART1;
 8001642:	9a02      	ldr	r2, [sp, #8]
  HAL_GPIO_Init(VCP_TX_GPIO_Port, &GPIO_InitStruct);
 8001644:	4869      	ldr	r0, [pc, #420]	; (80017ec <main+0x558>)
  GPIO_InitStruct.Pin = VCP_TX_Pin;
 8001646:	9111      	str	r1, [sp, #68]	; 0x44
  HAL_GPIO_Init(VCP_TX_GPIO_Port, &GPIO_InitStruct);
 8001648:	a911      	add	r1, sp, #68	; 0x44
  GPIO_InitStruct.Alternate = GPIO_AF7_USART1;
 800164a:	9215      	str	r2, [sp, #84]	; 0x54
  GPIO_InitStruct.Mode = GPIO_MODE_AF_PP;
 800164c:	9512      	str	r5, [sp, #72]	; 0x48
  GPIO_InitStruct.Pull = GPIO_NOPULL;
 800164e:	9413      	str	r4, [sp, #76]	; 0x4c
  GPIO_InitStruct.Speed = GPIO_SPEED_FREQ_LOW;
 8001650:	9414      	str	r4, [sp, #80]	; 0x50
  HAL_GPIO_Init(VCP_TX_GPIO_Port, &GPIO_InitStruct);
 8001652:	f7ff f929 	bl	80008a8 <HAL_GPIO_Init>
  GPIO_InitStruct.Pin = ULPI_DIR_Pin;
 8001656:	9b03      	ldr	r3, [sp, #12]
  HAL_GPIO_Init(ULPI_DIR_GPIO_Port, &GPIO_InitStruct);
 8001658:	a911      	add	r1, sp, #68	; 0x44
 800165a:	4867      	ldr	r0, [pc, #412]	; (80017f8 <main+0x564>)
  GPIO_InitStruct.Pin = ULPI_DIR_Pin;
 800165c:	9311      	str	r3, [sp, #68]	; 0x44
 800165e:	9302      	str	r3, [sp, #8]
  GPIO_InitStruct.Mode = GPIO_MODE_AF_PP;
 8001660:	9512      	str	r5, [sp, #72]	; 0x48
  GPIO_InitStruct.Speed = GPIO_SPEED_FREQ_VERY_HIGH;
 8001662:	9614      	str	r6, [sp, #80]	; 0x50
  GPIO_InitStruct.Pull = GPIO_NOPULL;
 8001664:	9413      	str	r4, [sp, #76]	; 0x4c
  GPIO_InitStruct.Alternate = GPIO_AF10_OTG_HS;
 8001666:	f8cd 8054 	str.w	r8, [sp, #84]	; 0x54
  HAL_GPIO_Init(ULPI_DIR_GPIO_Port, &GPIO_InitStruct);
 800166a:	f7ff f91d 	bl	80008a8 <HAL_GPIO_Init>
  GPIO_InitStruct.Pin = ARD_D5_PWM_Pin;
 800166e:	f44f 7280 	mov.w	r2, #256	; 0x100
  HAL_GPIO_Init(ARD_D5_PWM_GPIO_Port, &GPIO_InitStruct);
 8001672:	a911      	add	r1, sp, #68	; 0x44
 8001674:	4861      	ldr	r0, [pc, #388]	; (80017fc <main+0x568>)
  GPIO_InitStruct.Pin = ARD_D5_PWM_Pin;
 8001676:	9211      	str	r2, [sp, #68]	; 0x44
  GPIO_InitStruct.Mode = GPIO_MODE_AF_PP;
 8001678:	9512      	str	r5, [sp, #72]	; 0x48
  GPIO_InitStruct.Alternate = GPIO_AF2_TIM3;
 800167a:	9515      	str	r5, [sp, #84]	; 0x54
  GPIO_InitStruct.Pull = GPIO_NOPULL;
 800167c:	9413      	str	r4, [sp, #76]	; 0x4c
  GPIO_InitStruct.Speed = GPIO_SPEED_FREQ_LOW;
 800167e:	9414      	str	r4, [sp, #80]	; 0x50
  HAL_GPIO_Init(ARD_D5_PWM_GPIO_Port, &GPIO_InitStruct);
 8001680:	f7ff f912 	bl	80008a8 <HAL_GPIO_Init>
  GPIO_InitStruct.Pin = ARD_D0_RX_Pin|ARDUINO_TX_D1_Pin;
 8001684:	23c0      	movs	r3, #192	; 0xc0
  HAL_GPIO_Init(GPIOC, &GPIO_InitStruct);
 8001686:	a911      	add	r1, sp, #68	; 0x44
 8001688:	485c      	ldr	r0, [pc, #368]	; (80017fc <main+0x568>)
  GPIO_InitStruct.Pin = ARD_D0_RX_Pin|ARDUINO_TX_D1_Pin;
 800168a:	9311      	str	r3, [sp, #68]	; 0x44
  GPIO_InitStruct.Alternate = GPIO_AF8_USART6;
 800168c:	2308      	movs	r3, #8
  GPIO_InitStruct.Mode = GPIO_MODE_AF_PP;
 800168e:	9512      	str	r5, [sp, #72]	; 0x48
  GPIO_InitStruct.Alternate = GPIO_AF8_USART6;
 8001690:	9315      	str	r3, [sp, #84]	; 0x54
  GPIO_InitStruct.Speed = GPIO_SPEED_FREQ_VERY_HIGH;
 8001692:	9614      	str	r6, [sp, #80]	; 0x50
  GPIO_InitStruct.Pull = GPIO_NOPULL;
 8001694:	9413      	str	r4, [sp, #76]	; 0x4c
  HAL_GPIO_Init(GPIOC, &GPIO_InitStruct);
 8001696:	f7ff f907 	bl	80008a8 <HAL_GPIO_Init>
  GPIO_InitStruct.Mode = GPIO_MODE_AF_PP;
  GPIO_InitStruct.Pull = GPIO_NOPULL;
  GPIO_InitStruct.Speed = GPIO_SPEED_FREQ_VERY_HIGH;
  GPIO_InitStruct.Alternate = GPIO_AF10_OTG_HS;
  HAL_GPIO_Init(ULPI_NXT_GPIO_Port, &GPIO_InitStruct);
 800169a:	a911      	add	r1, sp, #68	; 0x44
 800169c:	4855      	ldr	r0, [pc, #340]	; (80017f4 <main+0x560>)
  GPIO_InitStruct.Mode = GPIO_MODE_AF_PP;
 800169e:	9512      	str	r5, [sp, #72]	; 0x48
  GPIO_InitStruct.Speed = GPIO_SPEED_FREQ_VERY_HIGH;
 80016a0:	9614      	str	r6, [sp, #80]	; 0x50
  GPIO_InitStruct.Pin = ULPI_NXT_Pin;
 80016a2:	f8cd a044 	str.w	sl, [sp, #68]	; 0x44
  GPIO_InitStruct.Pull = GPIO_NOPULL;
 80016a6:	9413      	str	r4, [sp, #76]	; 0x4c
  GPIO_InitStruct.Alternate = GPIO_AF10_OTG_HS;
 80016a8:	f8cd 8054 	str.w	r8, [sp, #84]	; 0x54
  HAL_GPIO_Init(ULPI_NXT_GPIO_Port, &GPIO_InitStruct);
 80016ac:	f7ff f8fc 	bl	80008a8 <HAL_GPIO_Init>

  /*Configure GPIO pin : SAI1_MCLKA_Pin */
  GPIO_InitStruct.Pin = SAI1_MCLKA_Pin;
 80016b0:	2380      	movs	r3, #128	; 0x80
  GPIO_InitStruct.Mode = GPIO_MODE_AF_PP;
  GPIO_InitStruct.Pull = GPIO_NOPULL;
  GPIO_InitStruct.Speed = GPIO_SPEED_FREQ_LOW;
  GPIO_InitStruct.Alternate = GPIO_AF6_SAI1;
  HAL_GPIO_Init(SAI1_MCLKA_GPIO_Port, &GPIO_InitStruct);
 80016b2:	a911      	add	r1, sp, #68	; 0x44
 80016b4:	484b      	ldr	r0, [pc, #300]	; (80017e4 <main+0x550>)
  GPIO_InitStruct.Pin = SAI1_MCLKA_Pin;
 80016b6:	9311      	str	r3, [sp, #68]	; 0x44
  GPIO_InitStruct.Alternate = GPIO_AF6_SAI1;
 80016b8:	2306      	movs	r3, #6
  GPIO_InitStruct.Mode = GPIO_MODE_AF_PP;
 80016ba:	9512      	str	r5, [sp, #72]	; 0x48
  GPIO_InitStruct.Alternate = GPIO_AF6_SAI1;
 80016bc:	9315      	str	r3, [sp, #84]	; 0x54
  GPIO_InitStruct.Pull = GPIO_NOPULL;
 80016be:	9413      	str	r4, [sp, #76]	; 0x4c
  GPIO_InitStruct.Speed = GPIO_SPEED_FREQ_LOW;
 80016c0:	9414      	str	r4, [sp, #80]	; 0x50
  HAL_GPIO_Init(SAI1_MCLKA_GPIO_Port, &GPIO_InitStruct);
 80016c2:	f7ff f8f1 	bl	80008a8 <HAL_GPIO_Init>

  /*Configure GPIO pins : EXT_SDA_Pin EXT_SCL_Pin */
  GPIO_InitStruct.Pin = EXT_SDA_Pin|EXT_SCL_Pin;
 80016c6:	2248      	movs	r2, #72	; 0x48
  GPIO_InitStruct.Mode = GPIO_MODE_INPUT;
  GPIO_InitStruct.Pull = GPIO_NOPULL;
  HAL_GPIO_Init(GPIOG, &GPIO_InitStruct);
 80016c8:	a911      	add	r1, sp, #68	; 0x44
 80016ca:	4846      	ldr	r0, [pc, #280]	; (80017e4 <main+0x550>)
  GPIO_InitStruct.Pin = EXT_SDA_Pin|EXT_SCL_Pin;
 80016cc:	9211      	str	r2, [sp, #68]	; 0x44
  GPIO_InitStruct.Mode = GPIO_MODE_INPUT;
 80016ce:	9412      	str	r4, [sp, #72]	; 0x48
  GPIO_InitStruct.Pull = GPIO_NOPULL;
 80016d0:	9413      	str	r4, [sp, #76]	; 0x4c
  HAL_GPIO_Init(GPIOG, &GPIO_InitStruct);
 80016d2:	f7ff f8e9 	bl	80008a8 <HAL_GPIO_Init>

  /*Configure GPIO pin : ARD_D6_PWM_Pin */
  GPIO_InitStruct.Pin = ARD_D6_PWM_Pin;
 80016d6:	2380      	movs	r3, #128	; 0x80
  GPIO_InitStruct.Mode = GPIO_MODE_AF_PP;
  GPIO_InitStruct.Pull = GPIO_NOPULL;
  GPIO_InitStruct.Speed = GPIO_SPEED_FREQ_LOW;
  GPIO_InitStruct.Alternate = GPIO_AF3_TIM11;
  HAL_GPIO_Init(ARD_D6_PWM_GPIO_Port, &GPIO_InitStruct);
 80016d8:	a911      	add	r1, sp, #68	; 0x44
 80016da:	4845      	ldr	r0, [pc, #276]	; (80017f0 <main+0x55c>)
  GPIO_InitStruct.Pin = ARD_D6_PWM_Pin;
 80016dc:	9311      	str	r3, [sp, #68]	; 0x44
  GPIO_InitStruct.Mode = GPIO_MODE_AF_PP;
 80016de:	9512      	str	r5, [sp, #72]	; 0x48
  GPIO_InitStruct.Alternate = GPIO_AF3_TIM11;
 80016e0:	9615      	str	r6, [sp, #84]	; 0x54
  GPIO_InitStruct.Pull = GPIO_NOPULL;
 80016e2:	9413      	str	r4, [sp, #76]	; 0x4c
  GPIO_InitStruct.Speed = GPIO_SPEED_FREQ_LOW;
 80016e4:	9414      	str	r4, [sp, #80]	; 0x50
  HAL_GPIO_Init(ARD_D6_PWM_GPIO_Port, &GPIO_InitStruct);
 80016e6:	f7ff f8df 	bl	80008a8 <HAL_GPIO_Init>

  /*Configure GPIO pin : ARD_D3_PWM_Pin */
  GPIO_InitStruct.Pin = ARD_D3_PWM_Pin;
 80016ea:	2340      	movs	r3, #64	; 0x40
  GPIO_InitStruct.Mode = GPIO_MODE_AF_PP;
  GPIO_InitStruct.Pull = GPIO_NOPULL;
  GPIO_InitStruct.Speed = GPIO_SPEED_FREQ_LOW;
  GPIO_InitStruct.Alternate = GPIO_AF3_TIM10;
  HAL_GPIO_Init(ARD_D3_PWM_GPIO_Port, &GPIO_InitStruct);
 80016ec:	a911      	add	r1, sp, #68	; 0x44
 80016ee:	4840      	ldr	r0, [pc, #256]	; (80017f0 <main+0x55c>)
  GPIO_InitStruct.Pin = ARD_D3_PWM_Pin;
 80016f0:	9311      	str	r3, [sp, #68]	; 0x44
  GPIO_InitStruct.Mode = GPIO_MODE_AF_PP;
 80016f2:	9512      	str	r5, [sp, #72]	; 0x48
  GPIO_InitStruct.Alternate = GPIO_AF3_TIM10;
 80016f4:	9615      	str	r6, [sp, #84]	; 0x54
  GPIO_InitStruct.Pull = GPIO_NOPULL;
 80016f6:	9413      	str	r4, [sp, #76]	; 0x4c
  GPIO_InitStruct.Speed = GPIO_SPEED_FREQ_LOW;
 80016f8:	9414      	str	r4, [sp, #80]	; 0x50
  HAL_GPIO_Init(ARD_D3_PWM_GPIO_Port, &GPIO_InitStruct);
 80016fa:	f7ff f8d5 	bl	80008a8 <HAL_GPIO_Init>

  /*Configure GPIO pins : ARDUINO_A1_Pin ARDUINO_A2_Pin ARDUINO_A3_Pin */
  GPIO_InitStruct.Pin = ARDUINO_A1_Pin|ARDUINO_A2_Pin|ARDUINO_A3_Pin;
 80016fe:	f44f 62e0 	mov.w	r2, #1792	; 0x700
  GPIO_InitStruct.Mode = GPIO_MODE_ANALOG;
  GPIO_InitStruct.Pull = GPIO_NOPULL;
  HAL_GPIO_Init(GPIOF, &GPIO_InitStruct);
 8001702:	a911      	add	r1, sp, #68	; 0x44
 8001704:	483a      	ldr	r0, [pc, #232]	; (80017f0 <main+0x55c>)
  GPIO_InitStruct.Pin = ARDUINO_A1_Pin|ARDUINO_A2_Pin|ARDUINO_A3_Pin;
 8001706:	9211      	str	r2, [sp, #68]	; 0x44
  GPIO_InitStruct.Mode = GPIO_MODE_ANALOG;
 8001708:	9612      	str	r6, [sp, #72]	; 0x48
  GPIO_InitStruct.Pull = GPIO_NOPULL;
 800170a:	9413      	str	r4, [sp, #76]	; 0x4c
  HAL_GPIO_Init(GPIOF, &GPIO_InitStruct);
 800170c:	f7ff f8cc 	bl	80008a8 <HAL_GPIO_Init>
  GPIO_InitStruct.Pin = ULPI_STP_Pin;
  GPIO_InitStruct.Mode = GPIO_MODE_AF_PP;
  GPIO_InitStruct.Pull = GPIO_NOPULL;
  GPIO_InitStruct.Speed = GPIO_SPEED_FREQ_VERY_HIGH;
  GPIO_InitStruct.Alternate = GPIO_AF10_OTG_HS;
  HAL_GPIO_Init(ULPI_STP_GPIO_Port, &GPIO_InitStruct);
 8001710:	a911      	add	r1, sp, #68	; 0x44
 8001712:	483a      	ldr	r0, [pc, #232]	; (80017fc <main+0x568>)
  GPIO_InitStruct.Mode = GPIO_MODE_AF_PP;
 8001714:	9512      	str	r5, [sp, #72]	; 0x48
  GPIO_InitStruct.Speed = GPIO_SPEED_FREQ_VERY_HIGH;
 8001716:	9614      	str	r6, [sp, #80]	; 0x50
  GPIO_InitStruct.Pin = ULPI_STP_Pin;
 8001718:	f8cd b044 	str.w	fp, [sp, #68]	; 0x44
  GPIO_InitStruct.Pull = GPIO_NOPULL;
 800171c:	9413      	str	r4, [sp, #76]	; 0x4c
  GPIO_InitStruct.Alternate = GPIO_AF10_OTG_HS;
 800171e:	f8cd 8054 	str.w	r8, [sp, #84]	; 0x54
  HAL_GPIO_Init(ULPI_STP_GPIO_Port, &GPIO_InitStruct);
 8001722:	f7ff f8c1 	bl	80008a8 <HAL_GPIO_Init>

  /*Configure GPIO pins : RMII_MDC_Pin RMII_RXD0_Pin RMII_RXD1_Pin */
  GPIO_InitStruct.Pin = RMII_MDC_Pin|RMII_RXD0_Pin|RMII_RXD1_Pin;
 8001726:	2232      	movs	r2, #50	; 0x32
  GPIO_InitStruct.Mode = GPIO_MODE_AF_PP;
  GPIO_InitStruct.Pull = GPIO_NOPULL;
  GPIO_InitStruct.Speed = GPIO_SPEED_FREQ_VERY_HIGH;
  GPIO_InitStruct.Alternate = GPIO_AF11_ETH;
 8001728:	230b      	movs	r3, #11
  HAL_GPIO_Init(GPIOC, &GPIO_InitStruct);
 800172a:	a911      	add	r1, sp, #68	; 0x44
 800172c:	4833      	ldr	r0, [pc, #204]	; (80017fc <main+0x568>)
  GPIO_InitStruct.Pin = RMII_MDC_Pin|RMII_RXD0_Pin|RMII_RXD1_Pin;
 800172e:	9211      	str	r2, [sp, #68]	; 0x44
  GPIO_InitStruct.Alternate = GPIO_AF11_ETH;
 8001730:	9315      	str	r3, [sp, #84]	; 0x54
  GPIO_InitStruct.Mode = GPIO_MODE_AF_PP;
 8001732:	9512      	str	r5, [sp, #72]	; 0x48
  GPIO_InitStruct.Speed = GPIO_SPEED_FREQ_VERY_HIGH;
 8001734:	9614      	str	r6, [sp, #80]	; 0x50
  GPIO_InitStruct.Pull = GPIO_NOPULL;
 8001736:	9413      	str	r4, [sp, #76]	; 0x4c
  HAL_GPIO_Init(GPIOC, &GPIO_InitStruct);
 8001738:	f7ff f8b6 	bl	80008a8 <HAL_GPIO_Init>

  /*Configure GPIO pin : ARD_A2_Pin */
  GPIO_InitStruct.Pin = ARD_A2_Pin;
  GPIO_InitStruct.Mode = GPIO_MODE_ANALOG;
  GPIO_InitStruct.Pull = GPIO_NOPULL;
  HAL_GPIO_Init(ARD_A2_GPIO_Port, &GPIO_InitStruct);
 800173c:	a911      	add	r1, sp, #68	; 0x44
 800173e:	482f      	ldr	r0, [pc, #188]	; (80017fc <main+0x568>)
  GPIO_InitStruct.Mode = GPIO_MODE_ANALOG;
 8001740:	9612      	str	r6, [sp, #72]	; 0x48
  GPIO_InitStruct.Pin = ARD_A2_Pin;
 8001742:	f8cd 9044 	str.w	r9, [sp, #68]	; 0x44
  GPIO_InitStruct.Pull = GPIO_NOPULL;
 8001746:	9413      	str	r4, [sp, #76]	; 0x4c
  HAL_GPIO_Init(ARD_A2_GPIO_Port, &GPIO_InitStruct);
 8001748:	f7ff f8ae 	bl	80008a8 <HAL_GPIO_Init>
  /*Configure GPIO pin : QSPI_CLK_Pin */
  GPIO_InitStruct.Pin = QSPI_CLK_Pin;
  GPIO_InitStruct.Mode = GPIO_MODE_AF_PP;
  GPIO_InitStruct.Pull = GPIO_NOPULL;
  GPIO_InitStruct.Speed = GPIO_SPEED_FREQ_VERY_HIGH;
  GPIO_InitStruct.Alternate = GPIO_AF9_QUADSPI;
 800174c:	2309      	movs	r3, #9
  HAL_GPIO_Init(QSPI_CLK_GPIO_Port, &GPIO_InitStruct);
 800174e:	a911      	add	r1, sp, #68	; 0x44
 8001750:	482b      	ldr	r0, [pc, #172]	; (8001800 <main+0x56c>)
  GPIO_InitStruct.Mode = GPIO_MODE_AF_PP;
 8001752:	9512      	str	r5, [sp, #72]	; 0x48
  GPIO_InitStruct.Speed = GPIO_SPEED_FREQ_VERY_HIGH;
 8001754:	9614      	str	r6, [sp, #80]	; 0x50
  GPIO_InitStruct.Alternate = GPIO_AF9_QUADSPI;
 8001756:	9315      	str	r3, [sp, #84]	; 0x54
  GPIO_InitStruct.Pin = QSPI_CLK_Pin;
 8001758:	f8cd 9044 	str.w	r9, [sp, #68]	; 0x44
  GPIO_InitStruct.Pull = GPIO_NOPULL;
 800175c:	9413      	str	r4, [sp, #76]	; 0x4c
  HAL_GPIO_Init(QSPI_CLK_GPIO_Port, &GPIO_InitStruct);
 800175e:	f7ff f8a3 	bl	80008a8 <HAL_GPIO_Init>

  /*Configure GPIO pin : AUDIO_SCL_Pin */
  GPIO_InitStruct.Pin = AUDIO_SCL_Pin;
 8001762:	f44f 5380 	mov.w	r3, #4096	; 0x1000
  GPIO_InitStruct.Mode = GPIO_MODE_AF_OD;
  GPIO_InitStruct.Pull = GPIO_PULLUP;
  GPIO_InitStruct.Speed = GPIO_SPEED_FREQ_VERY_HIGH;
  GPIO_InitStruct.Alternate = GPIO_AF4_I2C4;
  HAL_GPIO_Init(AUDIO_SCL_GPIO_Port, &GPIO_InitStruct);
 8001766:	a911      	add	r1, sp, #68	; 0x44
 8001768:	481f      	ldr	r0, [pc, #124]	; (80017e8 <main+0x554>)
  GPIO_InitStruct.Pin = AUDIO_SCL_Pin;
 800176a:	9311      	str	r3, [sp, #68]	; 0x44
  GPIO_InitStruct.Mode = GPIO_MODE_AF_OD;
 800176c:	2312      	movs	r3, #18
  GPIO_InitStruct.Speed = GPIO_SPEED_FREQ_VERY_HIGH;
 800176e:	9614      	str	r6, [sp, #80]	; 0x50
  GPIO_InitStruct.Mode = GPIO_MODE_AF_OD;
 8001770:	9312      	str	r3, [sp, #72]	; 0x48
  GPIO_InitStruct.Pull = GPIO_PULLUP;
 8001772:	f8cd b04c 	str.w	fp, [sp, #76]	; 0x4c
  GPIO_InitStruct.Alternate = GPIO_AF4_I2C4;
 8001776:	f8cd 9054 	str.w	r9, [sp, #84]	; 0x54
  HAL_GPIO_Init(AUDIO_SCL_GPIO_Port, &GPIO_InitStruct);
 800177a:	f7ff f895 	bl	80008a8 <HAL_GPIO_Init>

  /*Configure GPIO pin : QSPI_D3_Pin */
  GPIO_InitStruct.Pin = QSPI_D3_Pin;
 800177e:	f44f 5200 	mov.w	r2, #8192	; 0x2000
  GPIO_InitStruct.Mode = GPIO_MODE_AF_PP;
  GPIO_InitStruct.Pull = GPIO_NOPULL;
  GPIO_InitStruct.Speed = GPIO_SPEED_FREQ_VERY_HIGH;
  GPIO_InitStruct.Alternate = GPIO_AF9_QUADSPI;
 8001782:	2309      	movs	r3, #9
  HAL_GPIO_Init(QSPI_D3_GPIO_Port, &GPIO_InitStruct);
 8001784:	a911      	add	r1, sp, #68	; 0x44
 8001786:	4818      	ldr	r0, [pc, #96]	; (80017e8 <main+0x554>)
  GPIO_InitStruct.Pin = QSPI_D3_Pin;
 8001788:	9211      	str	r2, [sp, #68]	; 0x44
  GPIO_InitStruct.Mode = GPIO_MODE_AF_PP;
 800178a:	9512      	str	r5, [sp, #72]	; 0x48
  GPIO_InitStruct.Speed = GPIO_SPEED_FREQ_VERY_HIGH;
 800178c:	9614      	str	r6, [sp, #80]	; 0x50
  GPIO_InitStruct.Alternate = GPIO_AF9_QUADSPI;
 800178e:	9315      	str	r3, [sp, #84]	; 0x54
  GPIO_InitStruct.Pull = GPIO_NOPULL;
 8001790:	9413      	str	r4, [sp, #76]	; 0x4c
  HAL_GPIO_Init(QSPI_D3_GPIO_Port, &GPIO_InitStruct);
 8001792:	f7ff f889 	bl	80008a8 <HAL_GPIO_Init>
  /*Configure GPIO pins : RMII_REF_CLK_Pin RMII_MDIO_Pin RMII_CRS_DV_Pin */
  GPIO_InitStruct.Pin = RMII_REF_CLK_Pin|RMII_MDIO_Pin|RMII_CRS_DV_Pin;
  GPIO_InitStruct.Mode = GPIO_MODE_AF_PP;
  GPIO_InitStruct.Pull = GPIO_NOPULL;
  GPIO_InitStruct.Speed = GPIO_SPEED_FREQ_VERY_HIGH;
  GPIO_InitStruct.Alternate = GPIO_AF11_ETH;
 8001796:	230b      	movs	r3, #11
  GPIO_InitStruct.Pin = RMII_REF_CLK_Pin|RMII_MDIO_Pin|RMII_CRS_DV_Pin;
 8001798:	2286      	movs	r2, #134	; 0x86
  HAL_GPIO_Init(GPIOA, &GPIO_InitStruct);
 800179a:	a911      	add	r1, sp, #68	; 0x44
 800179c:	4813      	ldr	r0, [pc, #76]	; (80017ec <main+0x558>)
  GPIO_InitStruct.Alternate = GPIO_AF11_ETH;
 800179e:	9315      	str	r3, [sp, #84]	; 0x54
  GPIO_InitStruct.Pin = RMII_REF_CLK_Pin|RMII_MDIO_Pin|RMII_CRS_DV_Pin;
 80017a0:	9211      	str	r2, [sp, #68]	; 0x44
  GPIO_InitStruct.Mode = GPIO_MODE_AF_PP;
 80017a2:	9512      	str	r5, [sp, #72]	; 0x48
  GPIO_InitStruct.Speed = GPIO_SPEED_FREQ_VERY_HIGH;
 80017a4:	9614      	str	r6, [sp, #80]	; 0x50
  GPIO_InitStruct.Pull = GPIO_NOPULL;
 80017a6:	9413      	str	r4, [sp, #76]	; 0x4c
  HAL_GPIO_Init(GPIOA, &GPIO_InitStruct);
 80017a8:	f7ff f87e 	bl	80008a8 <HAL_GPIO_Init>

  /*Configure GPIO pin : B_USER_Pin */
  GPIO_InitStruct.Pin = B_USER_Pin;
  GPIO_InitStruct.Mode = GPIO_MODE_IT_RISING;
 80017ac:	4a15      	ldr	r2, [pc, #84]	; (8001804 <main+0x570>)
  GPIO_InitStruct.Pull = GPIO_NOPULL;
  HAL_GPIO_Init(B_USER_GPIO_Port, &GPIO_InitStruct);
 80017ae:	a911      	add	r1, sp, #68	; 0x44
 80017b0:	480e      	ldr	r0, [pc, #56]	; (80017ec <main+0x558>)
  GPIO_InitStruct.Mode = GPIO_MODE_IT_RISING;
 80017b2:	9212      	str	r2, [sp, #72]	; 0x48
  GPIO_InitStruct.Pin = B_USER_Pin;
 80017b4:	f8cd b044 	str.w	fp, [sp, #68]	; 0x44
  GPIO_InitStruct.Pull = GPIO_NOPULL;
 80017b8:	9413      	str	r4, [sp, #76]	; 0x4c
  HAL_GPIO_Init(B_USER_GPIO_Port, &GPIO_InitStruct);
 80017ba:	f7ff f875 	bl	80008a8 <HAL_GPIO_Init>

  /*Configure GPIO pins : ARD_A1_Pin ARD_A0_Pin */
  GPIO_InitStruct.Pin = ARD_A1_Pin|ARD_A0_Pin;
 80017be:	2250      	movs	r2, #80	; 0x50
  GPIO_InitStruct.Mode = GPIO_MODE_ANALOG;
  GPIO_InitStruct.Pull = GPIO_NOPULL;
  HAL_GPIO_Init(GPIOA, &GPIO_InitStruct);
 80017c0:	a911      	add	r1, sp, #68	; 0x44
 80017c2:	480a      	ldr	r0, [pc, #40]	; (80017ec <main+0x558>)
  GPIO_InitStruct.Pin = ARD_A1_Pin|ARD_A0_Pin;
 80017c4:	9211      	str	r2, [sp, #68]	; 0x44
  GPIO_InitStruct.Mode = GPIO_MODE_ANALOG;
 80017c6:	9612      	str	r6, [sp, #72]	; 0x48
  GPIO_InitStruct.Pull = GPIO_NOPULL;
 80017c8:	9413      	str	r4, [sp, #76]	; 0x4c
  HAL_GPIO_Init(GPIOA, &GPIO_InitStruct);
 80017ca:	f7ff f86d 	bl	80008a8 <HAL_GPIO_Init>

  /*Configure GPIO pin : SPDIF_TX_Pin */
  GPIO_InitStruct.Pin = SPDIF_TX_Pin;
 80017ce:	9b02      	ldr	r3, [sp, #8]
  GPIO_InitStruct.Mode = GPIO_MODE_AF_PP;
  GPIO_InitStruct.Pull = GPIO_NOPULL;
  GPIO_InitStruct.Speed = GPIO_SPEED_FREQ_LOW;
  GPIO_InitStruct.Alternate = GPIO_AF10_SAI2;
  HAL_GPIO_Init(SPDIF_TX_GPIO_Port, &GPIO_InitStruct);
 80017d0:	a911      	add	r1, sp, #68	; 0x44
 80017d2:	4805      	ldr	r0, [pc, #20]	; (80017e8 <main+0x554>)
  GPIO_InitStruct.Pin = SPDIF_TX_Pin;
 80017d4:	9311      	str	r3, [sp, #68]	; 0x44
  GPIO_InitStruct.Mode = GPIO_MODE_AF_PP;
 80017d6:	9512      	str	r5, [sp, #72]	; 0x48
  GPIO_InitStruct.Pull = GPIO_NOPULL;
 80017d8:	9413      	str	r4, [sp, #76]	; 0x4c
  GPIO_InitStruct.Speed = GPIO_SPEED_FREQ_LOW;
 80017da:	9414      	str	r4, [sp, #80]	; 0x50
 80017dc:	e014      	b.n	8001808 <main+0x574>
 80017de:	bf00      	nop
 80017e0:	40022800 	.word	0x40022800
 80017e4:	40021800 	.word	0x40021800
 80017e8:	40020c00 	.word	0x40020c00
 80017ec:	40020000 	.word	0x40020000
 80017f0:	40021400 	.word	0x40021400
 80017f4:	40021c00 	.word	0x40021c00
 80017f8:	40022000 	.word	0x40022000
 80017fc:	40020800 	.word	0x40020800
 8001800:	40020400 	.word	0x40020400
 8001804:	10110000 	.word	0x10110000
  GPIO_InitStruct.Alternate = GPIO_AF10_SAI2;
 8001808:	f8cd 8054 	str.w	r8, [sp, #84]	; 0x54
  HAL_GPIO_Init(SPDIF_TX_GPIO_Port, &GPIO_InitStruct);
 800180c:	f7ff f84c 	bl	80008a8 <HAL_GPIO_Init>

  /*Configure GPIO pin : EXT_RST_Pin */
  GPIO_InitStruct.Pin = EXT_RST_Pin;
 8001810:	2380      	movs	r3, #128	; 0x80
  GPIO_InitStruct.Mode = GPIO_MODE_INPUT;
  GPIO_InitStruct.Pull = GPIO_NOPULL;
  HAL_GPIO_Init(EXT_RST_GPIO_Port, &GPIO_InitStruct);
 8001812:	a911      	add	r1, sp, #68	; 0x44
 8001814:	483a      	ldr	r0, [pc, #232]	; (8001900 <main+0x66c>)
  GPIO_InitStruct.Pin = EXT_RST_Pin;
 8001816:	9311      	str	r3, [sp, #68]	; 0x44
  GPIO_InitStruct.Mode = GPIO_MODE_INPUT;
 8001818:	9412      	str	r4, [sp, #72]	; 0x48
  GPIO_InitStruct.Pull = GPIO_NOPULL;
 800181a:	9413      	str	r4, [sp, #76]	; 0x4c
  HAL_GPIO_Init(EXT_RST_GPIO_Port, &GPIO_InitStruct);
 800181c:	f7ff f844 	bl	80008a8 <HAL_GPIO_Init>

  /*Configure GPIO pins : ULPI_CLK_Pin ULPI_D0_Pin */
  GPIO_InitStruct.Pin = ULPI_CLK_Pin|ULPI_D0_Pin;
 8001820:	2328      	movs	r3, #40	; 0x28
  GPIO_InitStruct.Mode = GPIO_MODE_AF_PP;
  GPIO_InitStruct.Pull = GPIO_NOPULL;
  GPIO_InitStruct.Speed = GPIO_SPEED_FREQ_VERY_HIGH;
  GPIO_InitStruct.Alternate = GPIO_AF10_OTG_HS;
  HAL_GPIO_Init(GPIOA, &GPIO_InitStruct);
 8001822:	a911      	add	r1, sp, #68	; 0x44
 8001824:	4837      	ldr	r0, [pc, #220]	; (8001904 <main+0x670>)
  GPIO_InitStruct.Pin = ULPI_CLK_Pin|ULPI_D0_Pin;
 8001826:	9311      	str	r3, [sp, #68]	; 0x44
  GPIO_InitStruct.Mode = GPIO_MODE_AF_PP;
 8001828:	9512      	str	r5, [sp, #72]	; 0x48
  GPIO_InitStruct.Speed = GPIO_SPEED_FREQ_VERY_HIGH;
 800182a:	9614      	str	r6, [sp, #80]	; 0x50
  GPIO_InitStruct.Pull = GPIO_NOPULL;
 800182c:	9413      	str	r4, [sp, #76]	; 0x4c
  GPIO_InitStruct.Alternate = GPIO_AF10_OTG_HS;
 800182e:	f8cd 8054 	str.w	r8, [sp, #84]	; 0x54
  HAL_GPIO_Init(GPIOA, &GPIO_InitStruct);
 8001832:	f7ff f839 	bl	80008a8 <HAL_GPIO_Init>

  /*Configure GPIO pin : ARDUINO_PWM_D6_Pin */
  GPIO_InitStruct.Pin = ARDUINO_PWM_D6_Pin;
 8001836:	2340      	movs	r3, #64	; 0x40
  GPIO_InitStruct.Mode = GPIO_MODE_AF_PP;
  GPIO_InitStruct.Pull = GPIO_NOPULL;
  GPIO_InitStruct.Speed = GPIO_SPEED_FREQ_LOW;
  GPIO_InitStruct.Alternate = GPIO_AF9_TIM12;
  HAL_GPIO_Init(ARDUINO_PWM_D6_GPIO_Port, &GPIO_InitStruct);
 8001838:	a911      	add	r1, sp, #68	; 0x44
 800183a:	4831      	ldr	r0, [pc, #196]	; (8001900 <main+0x66c>)
  GPIO_InitStruct.Pin = ARDUINO_PWM_D6_Pin;
 800183c:	9311      	str	r3, [sp, #68]	; 0x44
  GPIO_InitStruct.Alternate = GPIO_AF9_TIM12;
 800183e:	2309      	movs	r3, #9
  GPIO_InitStruct.Mode = GPIO_MODE_AF_PP;
 8001840:	9512      	str	r5, [sp, #72]	; 0x48
  GPIO_InitStruct.Alternate = GPIO_AF9_TIM12;
 8001842:	9315      	str	r3, [sp, #84]	; 0x54
  GPIO_InitStruct.Pull = GPIO_NOPULL;
 8001844:	9413      	str	r4, [sp, #76]	; 0x4c
  GPIO_InitStruct.Speed = GPIO_SPEED_FREQ_LOW;
 8001846:	9414      	str	r4, [sp, #80]	; 0x50
  HAL_GPIO_Init(ARDUINO_PWM_D6_GPIO_Port, &GPIO_InitStruct);
 8001848:	f7ff f82e 	bl	80008a8 <HAL_GPIO_Init>

  /*Configure GPIO pins : ARDUINO_MISO_D12_Pin ARDUINO_MOSI_PWM_D11_Pin */
  GPIO_InitStruct.Pin = ARDUINO_MISO_D12_Pin|ARDUINO_MOSI_PWM_D11_Pin;
 800184c:	f44f 4340 	mov.w	r3, #49152	; 0xc000
  GPIO_InitStruct.Mode = GPIO_MODE_AF_PP;
 8001850:	9512      	str	r5, [sp, #72]	; 0x48
  GPIO_InitStruct.Pull = GPIO_NOPULL;
  GPIO_InitStruct.Speed = GPIO_SPEED_FREQ_LOW;
  GPIO_InitStruct.Alternate = GPIO_AF5_SPI2;
  HAL_GPIO_Init(GPIOB, &GPIO_InitStruct);
 8001852:	a911      	add	r1, sp, #68	; 0x44
 8001854:	482c      	ldr	r0, [pc, #176]	; (8001908 <main+0x674>)
  GPIO_InitStruct.Pin = ARDUINO_MISO_D12_Pin|ARDUINO_MOSI_PWM_D11_Pin;
 8001856:	9311      	str	r3, [sp, #68]	; 0x44
  GPIO_InitStruct.Alternate = GPIO_AF5_SPI2;
 8001858:	2305      	movs	r3, #5

  /* Configure LED user  */
  GPIO_InitStruct.Pin = GPIO_PIN_5;
 800185a:	2520      	movs	r5, #32
  GPIO_InitStruct.Pull = GPIO_NOPULL;
 800185c:	9413      	str	r4, [sp, #76]	; 0x4c
  GPIO_InitStruct.Alternate = GPIO_AF5_SPI2;
 800185e:	9315      	str	r3, [sp, #84]	; 0x54
  GPIO_InitStruct.Speed = GPIO_SPEED_FREQ_LOW;
 8001860:	9414      	str	r4, [sp, #80]	; 0x50
  HAL_GPIO_Init(GPIOB, &GPIO_InitStruct);
 8001862:	f7ff f821 	bl	80008a8 <HAL_GPIO_Init>

  GPIO_InitStruct.Mode = GPIO_MODE_OUTPUT_PP;
  GPIO_InitStruct.Speed = GPIO_SPEED_HIGH;
  GPIO_InitStruct.Pull = GPIO_NOPULL;
  HAL_GPIO_Init(GPIOJ, &GPIO_InitStruct);
 8001866:	a911      	add	r1, sp, #68	; 0x44
 8001868:	4828      	ldr	r0, [pc, #160]	; (800190c <main+0x678>)
  GPIO_InitStruct.Speed = GPIO_SPEED_HIGH;
 800186a:	9614      	str	r6, [sp, #80]	; 0x50
  GPIO_InitStruct.Pin = GPIO_PIN_5;
 800186c:	9511      	str	r5, [sp, #68]	; 0x44
  GPIO_InitStruct.Mode = GPIO_MODE_OUTPUT_PP;
 800186e:	f8cd b048 	str.w	fp, [sp, #72]	; 0x48
  GPIO_InitStruct.Pull = GPIO_NOPULL;
 8001872:	9413      	str	r4, [sp, #76]	; 0x4c
  HAL_GPIO_Init(GPIOJ, &GPIO_InitStruct);
 8001874:	f7ff f818 	bl	80008a8 <HAL_GPIO_Init>
  __HAL_RCC_DMA1_CLK_ENABLE();
 8001878:	6b3b      	ldr	r3, [r7, #48]	; 0x30
  HAL_NVIC_SetPriority(DMA1_Stream5_IRQn, 0, 0);
 800187a:	4622      	mov	r2, r4
 800187c:	4621      	mov	r1, r4
 800187e:	4650      	mov	r0, sl
  __HAL_RCC_DMA1_CLK_ENABLE();
 8001880:	f443 1300 	orr.w	r3, r3, #2097152	; 0x200000
  hdac.Instance = DAC;
 8001884:	4e22      	ldr	r6, [pc, #136]	; (8001910 <main+0x67c>)
  __HAL_RCC_DMA1_CLK_ENABLE();
 8001886:	633b      	str	r3, [r7, #48]	; 0x30
 8001888:	6b3b      	ldr	r3, [r7, #48]	; 0x30
 800188a:	f403 1300 	and.w	r3, r3, #2097152	; 0x200000
 800188e:	9305      	str	r3, [sp, #20]
 8001890:	9b05      	ldr	r3, [sp, #20]
  HAL_NVIC_SetPriority(DMA1_Stream5_IRQn, 0, 0);
 8001892:	f7fe fd11 	bl	80002b8 <HAL_NVIC_SetPriority>
  HAL_NVIC_EnableIRQ(DMA1_Stream5_IRQn);
 8001896:	4650      	mov	r0, sl
 8001898:	f7fe fd46 	bl	8000328 <HAL_NVIC_EnableIRQ>
  hdac.Instance = DAC;
 800189c:	4b1d      	ldr	r3, [pc, #116]	; (8001914 <main+0x680>)
  if (HAL_DAC_Init(&hdac) != HAL_OK)
 800189e:	4630      	mov	r0, r6
  hdac.Instance = DAC;
 80018a0:	6033      	str	r3, [r6, #0]
  if (HAL_DAC_Init(&hdac) != HAL_OK)
 80018a2:	f7fe fd74 	bl	800038e <HAL_DAC_Init>
 80018a6:	4602      	mov	r2, r0
 80018a8:	b100      	cbz	r0, 80018ac <main+0x618>
 80018aa:	e7fe      	b.n	80018aa <main+0x616>
  sConfig.DAC_OutputBuffer = DAC_OUTPUTBUFFER_ENABLE;
 80018ac:	9012      	str	r0, [sp, #72]	; 0x48
  if (HAL_DAC_ConfigChannel(&hdac, &sConfig, DAC_CHANNEL_1) != HAL_OK)
 80018ae:	a911      	add	r1, sp, #68	; 0x44
 80018b0:	4630      	mov	r0, r6
  sConfig.DAC_Trigger = DAC_TRIGGER_T6_TRGO;
 80018b2:	f8cd 9044 	str.w	r9, [sp, #68]	; 0x44
  if (HAL_DAC_ConfigChannel(&hdac, &sConfig, DAC_CHANNEL_1) != HAL_OK)
 80018b6:	f7fe fe29 	bl	800050c <HAL_DAC_ConfigChannel>
 80018ba:	b100      	cbz	r0, 80018be <main+0x62a>
 80018bc:	e7fe      	b.n	80018bc <main+0x628>
  htim6.Instance = TIM6;
 80018be:	4c16      	ldr	r4, [pc, #88]	; (8001918 <main+0x684>)
  htim6.Init.Prescaler = 100;
 80018c0:	2364      	movs	r3, #100	; 0x64
 80018c2:	4a16      	ldr	r2, [pc, #88]	; (800191c <main+0x688>)
  htim6.Init.CounterMode = TIM_COUNTERMODE_UP;
 80018c4:	60a0      	str	r0, [r4, #8]
  htim6.Init.AutoReloadPreload = TIM_AUTORELOAD_PRELOAD_DISABLE;
 80018c6:	61a0      	str	r0, [r4, #24]
  if (HAL_TIM_Base_Init(&htim6) != HAL_OK)
 80018c8:	4620      	mov	r0, r4
  htim6.Init.Prescaler = 100;
 80018ca:	e884 000c 	stmia.w	r4, {r2, r3}
  htim6.Init.Period = 250;
 80018ce:	23fa      	movs	r3, #250	; 0xfa
 80018d0:	60e3      	str	r3, [r4, #12]
  if (HAL_TIM_Base_Init(&htim6) != HAL_OK)
 80018d2:	f7ff fc55 	bl	8001180 <HAL_TIM_Base_Init>
 80018d6:	b100      	cbz	r0, 80018da <main+0x646>
 80018d8:	e7fe      	b.n	80018d8 <main+0x644>
  sMasterConfig.MasterSlaveMode = TIM_MASTERSLAVEMODE_DISABLE;
 80018da:	9013      	str	r0, [sp, #76]	; 0x4c
  if (HAL_TIMEx_MasterConfigSynchronization(&htim6, &sMasterConfig) != HAL_OK)
 80018dc:	a911      	add	r1, sp, #68	; 0x44
 80018de:	4620      	mov	r0, r4
  sMasterConfig.MasterOutputTrigger = TIM_TRGO_UPDATE;
 80018e0:	9511      	str	r5, [sp, #68]	; 0x44
  if (HAL_TIMEx_MasterConfigSynchronization(&htim6, &sMasterConfig) != HAL_OK)
 80018e2:	f7ff fc67 	bl	80011b4 <HAL_TIMEx_MasterConfigSynchronization>
 80018e6:	4601      	mov	r1, r0
 80018e8:	b100      	cbz	r0, 80018ec <main+0x658>
 80018ea:	e7fe      	b.n	80018ea <main+0x656>
  HAL_DAC_Start_DMA(&hdac, DAC_CHANNEL_1, (uint32_t*)aTxBuffer, 32, DAC_ALIGN_12B_R);
 80018ec:	9000      	str	r0, [sp, #0]
 80018ee:	462b      	mov	r3, r5
 80018f0:	4a0b      	ldr	r2, [pc, #44]	; (8001920 <main+0x68c>)
 80018f2:	4630      	mov	r0, r6
 80018f4:	f7fe fd5e 	bl	80003b4 <HAL_DAC_Start_DMA>
  HAL_TIM_Base_Start(&htim6);
 80018f8:	4620      	mov	r0, r4
 80018fa:	f7ff fb17 	bl	8000f2c <HAL_TIM_Base_Start>
 80018fe:	e7fe      	b.n	80018fe <main+0x66a>
 8001900:	40021c00 	.word	0x40021c00
 8001904:	40020000 	.word	0x40020000
 8001908:	40020400 	.word	0x40020400
 800190c:	40022400 	.word	0x40022400
 8001910:	20000084 	.word	0x20000084
 8001914:	40007400 	.word	0x40007400
 8001918:	20000098 	.word	0x20000098
 800191c:	40001000 	.word	0x40001000
 8001920:	08001b9c 	.word	0x08001b9c

08001924 <HAL_DAC_ConvCpltCallbackCh1>:


void HAL_DAC_ConvCpltCallbackCh1(DAC_HandleTypeDef* hdac){

	/* do something when DAC ends conversion */
	HAL_GPIO_TogglePin(GPIOJ, GPIO_PIN_5);
 8001924:	2120      	movs	r1, #32
 8001926:	4801      	ldr	r0, [pc, #4]	; (800192c <HAL_DAC_ConvCpltCallbackCh1+0x8>)
 8001928:	f7ff b8a8 	b.w	8000a7c <HAL_GPIO_TogglePin>
 800192c:	40022400 	.word	0x40022400

08001930 <_Error_Handler>:
  * @brief  This function is executed in case of error occurrence.
  * @param  None
  * @retval None
  */
void _Error_Handler(char * file, int line)
{
 8001930:	e7fe      	b.n	8001930 <_Error_Handler>

08001932 <HAL_MspInit>:
/* USER CODE END 0 */
/**
  * Initializes the Global MSP.
  */
void HAL_MspInit(void)
{
 8001932:	b508      	push	{r3, lr}
  /* USER CODE BEGIN MspInit 0 */

  /* USER CODE END MspInit 0 */

  HAL_NVIC_SetPriorityGrouping(NVIC_PRIORITYGROUP_4);
 8001934:	2003      	movs	r0, #3
 8001936:	f7fe fcad 	bl	8000294 <HAL_NVIC_SetPriorityGrouping>

  /* System interrupt init*/
  /* MemoryManagement_IRQn interrupt configuration */
  HAL_NVIC_SetPriority(MemoryManagement_IRQn, 0, 0);
 800193a:	2200      	movs	r2, #0
 800193c:	f06f 000b 	mvn.w	r0, #11
 8001940:	4611      	mov	r1, r2
 8001942:	f7fe fcb9 	bl	80002b8 <HAL_NVIC_SetPriority>
  /* BusFault_IRQn interrupt configuration */
  HAL_NVIC_SetPriority(BusFault_IRQn, 0, 0);
 8001946:	2200      	movs	r2, #0
 8001948:	f06f 000a 	mvn.w	r0, #10
 800194c:	4611      	mov	r1, r2
 800194e:	f7fe fcb3 	bl	80002b8 <HAL_NVIC_SetPriority>
  /* UsageFault_IRQn interrupt configuration */
  HAL_NVIC_SetPriority(UsageFault_IRQn, 0, 0);
 8001952:	2200      	movs	r2, #0
 8001954:	f06f 0009 	mvn.w	r0, #9
 8001958:	4611      	mov	r1, r2
 800195a:	f7fe fcad 	bl	80002b8 <HAL_NVIC_SetPriority>
  /* SVCall_IRQn interrupt configuration */
  HAL_NVIC_SetPriority(SVCall_IRQn, 0, 0);
 800195e:	2200      	movs	r2, #0
 8001960:	f06f 0004 	mvn.w	r0, #4
 8001964:	4611      	mov	r1, r2
 8001966:	f7fe fca7 	bl	80002b8 <HAL_NVIC_SetPriority>
  /* DebugMonitor_IRQn interrupt configuration */
  HAL_NVIC_SetPriority(DebugMonitor_IRQn, 0, 0);
 800196a:	2200      	movs	r2, #0
 800196c:	f06f 0003 	mvn.w	r0, #3
 8001970:	4611      	mov	r1, r2
 8001972:	f7fe fca1 	bl	80002b8 <HAL_NVIC_SetPriority>
  /* PendSV_IRQn interrupt configuration */
  HAL_NVIC_SetPriority(PendSV_IRQn, 0, 0);
 8001976:	2200      	movs	r2, #0
 8001978:	f06f 0001 	mvn.w	r0, #1
 800197c:	4611      	mov	r1, r2
 800197e:	f7fe fc9b 	bl	80002b8 <HAL_NVIC_SetPriority>
  /* SysTick_IRQn interrupt configuration */
  HAL_NVIC_SetPriority(SysTick_IRQn, 0, 0);
 8001982:	2200      	movs	r2, #0
 8001984:	f04f 30ff 	mov.w	r0, #4294967295
 8001988:	4611      	mov	r1, r2

  /* USER CODE BEGIN MspInit 1 */

  /* USER CODE END MspInit 1 */
}
 800198a:	e8bd 4008 	ldmia.w	sp!, {r3, lr}
  HAL_NVIC_SetPriority(SysTick_IRQn, 0, 0);
 800198e:	f7fe bc93 	b.w	80002b8 <HAL_NVIC_SetPriority>
	...

08001994 <HAL_DAC_MspInit>:

void HAL_DAC_MspInit(DAC_HandleTypeDef* hdac)
{

  GPIO_InitTypeDef GPIO_InitStruct;
  if(hdac->Instance==DAC)
 8001994:	6802      	ldr	r2, [r0, #0]
 8001996:	4b22      	ldr	r3, [pc, #136]	; (8001a20 <HAL_DAC_MspInit+0x8c>)
 8001998:	429a      	cmp	r2, r3
{
 800199a:	b570      	push	{r4, r5, r6, lr}
 800199c:	4606      	mov	r6, r0
 800199e:	b086      	sub	sp, #24
  if(hdac->Instance==DAC)
 80019a0:	d13c      	bne.n	8001a1c <HAL_DAC_MspInit+0x88>
  {
  /* USER CODE BEGIN DAC_MspInit 0 */

  /* USER CODE END DAC_MspInit 0 */
    /* Peripheral clock enable */
    __HAL_RCC_DAC_CLK_ENABLE();
 80019a2:	f503 33e2 	add.w	r3, r3, #115712	; 0x1c400
    /**DAC GPIO Configuration    
    PA4     ------> DAC_OUT1 
    */
    GPIO_InitStruct.Pin = ARD_A1_Pin;
    GPIO_InitStruct.Mode = GPIO_MODE_ANALOG;
    GPIO_InitStruct.Pull = GPIO_NOPULL;
 80019a6:	2500      	movs	r5, #0
    HAL_GPIO_Init(ARD_A1_GPIO_Port, &GPIO_InitStruct);
 80019a8:	a901      	add	r1, sp, #4
 80019aa:	481e      	ldr	r0, [pc, #120]	; (8001a24 <HAL_DAC_MspInit+0x90>)
    __HAL_RCC_DAC_CLK_ENABLE();
 80019ac:	6c1a      	ldr	r2, [r3, #64]	; 0x40

    /* DAC DMA Init */
    /* DAC1 Init */
    hdma_dac1.Instance = DMA1_Stream5;
 80019ae:	4c1e      	ldr	r4, [pc, #120]	; (8001a28 <HAL_DAC_MspInit+0x94>)
    __HAL_RCC_DAC_CLK_ENABLE();
 80019b0:	f042 5200 	orr.w	r2, r2, #536870912	; 0x20000000
 80019b4:	641a      	str	r2, [r3, #64]	; 0x40
 80019b6:	6c1b      	ldr	r3, [r3, #64]	; 0x40
    GPIO_InitStruct.Pull = GPIO_NOPULL;
 80019b8:	9503      	str	r5, [sp, #12]
    __HAL_RCC_DAC_CLK_ENABLE();
 80019ba:	f003 5300 	and.w	r3, r3, #536870912	; 0x20000000
 80019be:	9300      	str	r3, [sp, #0]
 80019c0:	9b00      	ldr	r3, [sp, #0]
    GPIO_InitStruct.Pin = ARD_A1_Pin;
 80019c2:	2310      	movs	r3, #16
 80019c4:	9301      	str	r3, [sp, #4]
    GPIO_InitStruct.Mode = GPIO_MODE_ANALOG;
 80019c6:	2303      	movs	r3, #3
 80019c8:	9302      	str	r3, [sp, #8]
    HAL_GPIO_Init(ARD_A1_GPIO_Port, &GPIO_InitStruct);
 80019ca:	f7fe ff6d 	bl	80008a8 <HAL_GPIO_Init>
    hdma_dac1.Init.Channel = DMA_CHANNEL_7;
    hdma_dac1.Init.Direction = DMA_MEMORY_TO_PERIPH;
 80019ce:	2340      	movs	r3, #64	; 0x40
 80019d0:	4916      	ldr	r1, [pc, #88]	; (8001a2c <HAL_DAC_MspInit+0x98>)
 80019d2:	f04f 6260 	mov.w	r2, #234881024	; 0xe000000
    hdma_dac1.Init.PeriphDataAlignment = DMA_PDATAALIGN_HALFWORD;
    hdma_dac1.Init.MemDataAlignment = DMA_MDATAALIGN_HALFWORD;
    hdma_dac1.Init.Mode = DMA_CIRCULAR;
    hdma_dac1.Init.Priority = DMA_PRIORITY_LOW;
    hdma_dac1.Init.FIFOMode = DMA_FIFOMODE_DISABLE;
    if (HAL_DMA_Init(&hdma_dac1) != HAL_OK)
 80019d6:	4620      	mov	r0, r4
    hdma_dac1.Init.PeriphInc = DMA_PINC_DISABLE;
 80019d8:	60e5      	str	r5, [r4, #12]
    hdma_dac1.Init.Priority = DMA_PRIORITY_LOW;
 80019da:	6225      	str	r5, [r4, #32]
    hdma_dac1.Init.FIFOMode = DMA_FIFOMODE_DISABLE;
 80019dc:	6265      	str	r5, [r4, #36]	; 0x24
    hdma_dac1.Init.Direction = DMA_MEMORY_TO_PERIPH;
 80019de:	e884 000e 	stmia.w	r4, {r1, r2, r3}
    hdma_dac1.Init.MemInc = DMA_MINC_ENABLE;
 80019e2:	f44f 6380 	mov.w	r3, #1024	; 0x400
 80019e6:	6123      	str	r3, [r4, #16]
    hdma_dac1.Init.PeriphDataAlignment = DMA_PDATAALIGN_HALFWORD;
 80019e8:	f44f 6300 	mov.w	r3, #2048	; 0x800
 80019ec:	6163      	str	r3, [r4, #20]
    hdma_dac1.Init.MemDataAlignment = DMA_MDATAALIGN_HALFWORD;
 80019ee:	f44f 5300 	mov.w	r3, #8192	; 0x2000
 80019f2:	61a3      	str	r3, [r4, #24]
    hdma_dac1.Init.Mode = DMA_CIRCULAR;
 80019f4:	f44f 7380 	mov.w	r3, #256	; 0x100
 80019f8:	61e3      	str	r3, [r4, #28]
    if (HAL_DMA_Init(&hdma_dac1) != HAL_OK)
 80019fa:	f7fe fddb 	bl	80005b4 <HAL_DMA_Init>
 80019fe:	b118      	cbz	r0, 8001a08 <HAL_DAC_MspInit+0x74>
    {
      _Error_Handler(__FILE__, __LINE__);
 8001a00:	2172      	movs	r1, #114	; 0x72
 8001a02:	480b      	ldr	r0, [pc, #44]	; (8001a30 <HAL_DAC_MspInit+0x9c>)
 8001a04:	f7ff ff94 	bl	8001930 <_Error_Handler>
    }

    __HAL_LINKDMA(hdac,DMA_Handle1,hdma_dac1);

    /* DAC interrupt Init */
    HAL_NVIC_SetPriority(TIM6_DAC_IRQn, 0, 0);
 8001a08:	2200      	movs	r2, #0
    __HAL_LINKDMA(hdac,DMA_Handle1,hdma_dac1);
 8001a0a:	60b4      	str	r4, [r6, #8]
    HAL_NVIC_SetPriority(TIM6_DAC_IRQn, 0, 0);
 8001a0c:	2036      	movs	r0, #54	; 0x36
    __HAL_LINKDMA(hdac,DMA_Handle1,hdma_dac1);
 8001a0e:	63a6      	str	r6, [r4, #56]	; 0x38
    HAL_NVIC_SetPriority(TIM6_DAC_IRQn, 0, 0);
 8001a10:	4611      	mov	r1, r2
 8001a12:	f7fe fc51 	bl	80002b8 <HAL_NVIC_SetPriority>
    HAL_NVIC_EnableIRQ(TIM6_DAC_IRQn);
 8001a16:	2036      	movs	r0, #54	; 0x36
 8001a18:	f7fe fc86 	bl	8000328 <HAL_NVIC_EnableIRQ>
  /* USER CODE BEGIN DAC_MspInit 1 */

  /* USER CODE END DAC_MspInit 1 */
  }

}
 8001a1c:	b006      	add	sp, #24
 8001a1e:	bd70      	pop	{r4, r5, r6, pc}
 8001a20:	40007400 	.word	0x40007400
 8001a24:	40020000 	.word	0x40020000
 8001a28:	20000024 	.word	0x20000024
 8001a2c:	40026088 	.word	0x40026088
 8001a30:	08001bdc 	.word	0x08001bdc

08001a34 <HAL_TIM_Base_MspInit>:
}

void HAL_TIM_Base_MspInit(TIM_HandleTypeDef* htim_base)
{

  if(htim_base->Instance==TIM6)
 8001a34:	6802      	ldr	r2, [r0, #0]
{
 8001a36:	b082      	sub	sp, #8
  if(htim_base->Instance==TIM6)
 8001a38:	4b07      	ldr	r3, [pc, #28]	; (8001a58 <HAL_TIM_Base_MspInit+0x24>)
 8001a3a:	429a      	cmp	r2, r3
 8001a3c:	d10a      	bne.n	8001a54 <HAL_TIM_Base_MspInit+0x20>
  {
  /* USER CODE BEGIN TIM6_MspInit 0 */

  /* USER CODE END TIM6_MspInit 0 */
    /* Peripheral clock enable */
    __HAL_RCC_TIM6_CLK_ENABLE();
 8001a3e:	f503 330a 	add.w	r3, r3, #141312	; 0x22800
 8001a42:	6c1a      	ldr	r2, [r3, #64]	; 0x40
 8001a44:	f042 0210 	orr.w	r2, r2, #16
 8001a48:	641a      	str	r2, [r3, #64]	; 0x40
 8001a4a:	6c1b      	ldr	r3, [r3, #64]	; 0x40
 8001a4c:	f003 0310 	and.w	r3, r3, #16
 8001a50:	9301      	str	r3, [sp, #4]
 8001a52:	9b01      	ldr	r3, [sp, #4]
  /* USER CODE BEGIN TIM6_MspInit 1 */

  /* USER CODE END TIM6_MspInit 1 */
  }

}
 8001a54:	b002      	add	sp, #8
 8001a56:	4770      	bx	lr
 8001a58:	40001000 	.word	0x40001000

08001a5c <SysTick_Handler>:

/**
* @brief This function handles System tick timer.
*/
void SysTick_Handler(void)
{
 8001a5c:	b508      	push	{r3, lr}
  /* USER CODE BEGIN SysTick_IRQn 0 */

  /* USER CODE END SysTick_IRQn 0 */
  HAL_IncTick();
 8001a5e:	f7fe fc0b 	bl	8000278 <HAL_IncTick>
  HAL_SYSTICK_IRQHandler();
  /* USER CODE BEGIN SysTick_IRQn 1 */

  /* USER CODE END SysTick_IRQn 1 */
}
 8001a62:	e8bd 4008 	ldmia.w	sp!, {r3, lr}
  HAL_SYSTICK_IRQHandler();
 8001a66:	f7fe bc8e 	b.w	8000386 <HAL_SYSTICK_IRQHandler>
	...

08001a6c <DMA1_Stream5_IRQHandler>:
void DMA1_Stream5_IRQHandler(void)
{
  /* USER CODE BEGIN DMA1_Stream5_IRQn 0 */

  /* USER CODE END DMA1_Stream5_IRQn 0 */
  HAL_DMA_IRQHandler(&hdma_dac1);
 8001a6c:	4801      	ldr	r0, [pc, #4]	; (8001a74 <DMA1_Stream5_IRQHandler+0x8>)
 8001a6e:	f7fe be5d 	b.w	800072c <HAL_DMA_IRQHandler>
 8001a72:	bf00      	nop
 8001a74:	20000024 	.word	0x20000024

08001a78 <TIM6_DAC_IRQHandler>:

/**
* @brief This function handles TIM6 global interrupt, DAC1 and DAC2 underrun error interrupts.
*/
void TIM6_DAC_IRQHandler(void)
{
 8001a78:	b508      	push	{r3, lr}
  /* USER CODE BEGIN TIM6_DAC_IRQn 0 */

  /* USER CODE END TIM6_DAC_IRQn 0 */
  HAL_DAC_IRQHandler(&hdac);
 8001a7a:	4804      	ldr	r0, [pc, #16]	; (8001a8c <TIM6_DAC_IRQHandler+0x14>)
 8001a7c:	f7fe fd1a 	bl	80004b4 <HAL_DAC_IRQHandler>
  HAL_TIM_IRQHandler(&htim6);
 8001a80:	4803      	ldr	r0, [pc, #12]	; (8001a90 <TIM6_DAC_IRQHandler+0x18>)
  /* USER CODE BEGIN TIM6_DAC_IRQn 1 */

  /* USER CODE END TIM6_DAC_IRQn 1 */
}
 8001a82:	e8bd 4008 	ldmia.w	sp!, {r3, lr}
  HAL_TIM_IRQHandler(&htim6);
 8001a86:	f7ff ba63 	b.w	8000f50 <HAL_TIM_IRQHandler>
 8001a8a:	bf00      	nop
 8001a8c:	20000084 	.word	0x20000084
 8001a90:	20000098 	.word	0x20000098

08001a94 <SystemInit>:
  */
void SystemInit(void)
{
  /* FPU settings ------------------------------------------------------------*/
  #if (__FPU_PRESENT == 1) && (__FPU_USED == 1)
    SCB->CPACR |= ((3UL << 10*2)|(3UL << 11*2));  /* set CP10 and CP11 Full Access */
 8001a94:	490f      	ldr	r1, [pc, #60]	; (8001ad4 <SystemInit+0x40>)
  /* Reset the RCC clock configuration to the default reset state ------------*/
  /* Set HSION bit */
  RCC->CR |= (uint32_t)0x00000001;

  /* Reset CFGR register */
  RCC->CFGR = 0x00000000;
 8001a96:	2000      	movs	r0, #0
    SCB->CPACR |= ((3UL << 10*2)|(3UL << 11*2));  /* set CP10 and CP11 Full Access */
 8001a98:	f8d1 3088 	ldr.w	r3, [r1, #136]	; 0x88
 8001a9c:	f443 0370 	orr.w	r3, r3, #15728640	; 0xf00000
 8001aa0:	f8c1 3088 	str.w	r3, [r1, #136]	; 0x88
  RCC->CR |= (uint32_t)0x00000001;
 8001aa4:	4b0c      	ldr	r3, [pc, #48]	; (8001ad8 <SystemInit+0x44>)
 8001aa6:	681a      	ldr	r2, [r3, #0]
 8001aa8:	f042 0201 	orr.w	r2, r2, #1
 8001aac:	601a      	str	r2, [r3, #0]
  RCC->CFGR = 0x00000000;
 8001aae:	6098      	str	r0, [r3, #8]

  /* Reset HSEON, CSSON and PLLON bits */
  RCC->CR &= (uint32_t)0xFEF6FFFF;
 8001ab0:	681a      	ldr	r2, [r3, #0]
 8001ab2:	f022 7284 	bic.w	r2, r2, #17301504	; 0x1080000
 8001ab6:	f422 3280 	bic.w	r2, r2, #65536	; 0x10000
 8001aba:	601a      	str	r2, [r3, #0]

  /* Reset PLLCFGR register */
  RCC->PLLCFGR = 0x24003010;
 8001abc:	4a07      	ldr	r2, [pc, #28]	; (8001adc <SystemInit+0x48>)
 8001abe:	605a      	str	r2, [r3, #4]

  /* Reset HSEBYP bit */
  RCC->CR &= (uint32_t)0xFFFBFFFF;
 8001ac0:	681a      	ldr	r2, [r3, #0]
 8001ac2:	f422 2280 	bic.w	r2, r2, #262144	; 0x40000
 8001ac6:	601a      	str	r2, [r3, #0]

  /* Disable all interrupts */
  RCC->CIR = 0x00000000;
 8001ac8:	60d8      	str	r0, [r3, #12]

  /* Configure the Vector Table location add offset address ------------------*/
#ifdef VECT_TAB_SRAM
  SCB->VTOR = RAMDTCM_BASE | VECT_TAB_OFFSET; /* Vector Table Relocation in Internal SRAM */
#else
  SCB->VTOR = FLASH_BASE | VECT_TAB_OFFSET; /* Vector Table Relocation in Internal FLASH */
 8001aca:	f04f 6300 	mov.w	r3, #134217728	; 0x8000000
 8001ace:	608b      	str	r3, [r1, #8]
 8001ad0:	4770      	bx	lr
 8001ad2:	bf00      	nop
 8001ad4:	e000ed00 	.word	0xe000ed00
 8001ad8:	40023800 	.word	0x40023800
 8001adc:	24003010 	.word	0x24003010

08001ae0 <Reset_Handler>:

    .section  .text.Reset_Handler
  .weak  Reset_Handler
  .type  Reset_Handler, %function
Reset_Handler:  
  ldr   sp, =_estack      /* set stack pointer */
 8001ae0:	f8df d034 	ldr.w	sp, [pc, #52]	; 8001b18 <LoopFillZerobss+0x14>

/* Copy the data segment initializers from flash to SRAM */  
  movs  r1, #0
 8001ae4:	2100      	movs	r1, #0
  b  LoopCopyDataInit
 8001ae6:	e003      	b.n	8001af0 <LoopCopyDataInit>

08001ae8 <CopyDataInit>:

CopyDataInit:
  ldr  r3, =_sidata
 8001ae8:	4b0c      	ldr	r3, [pc, #48]	; (8001b1c <LoopFillZerobss+0x18>)
  ldr  r3, [r3, r1]
 8001aea:	585b      	ldr	r3, [r3, r1]
  str  r3, [r0, r1]
 8001aec:	5043      	str	r3, [r0, r1]
  adds  r1, r1, #4
 8001aee:	3104      	adds	r1, #4

08001af0 <LoopCopyDataInit>:
    
LoopCopyDataInit:
  ldr  r0, =_sdata
 8001af0:	480b      	ldr	r0, [pc, #44]	; (8001b20 <LoopFillZerobss+0x1c>)
  ldr  r3, =_edata
 8001af2:	4b0c      	ldr	r3, [pc, #48]	; (8001b24 <LoopFillZerobss+0x20>)
  adds  r2, r0, r1
 8001af4:	1842      	adds	r2, r0, r1
  cmp  r2, r3
 8001af6:	429a      	cmp	r2, r3
  bcc  CopyDataInit
 8001af8:	d3f6      	bcc.n	8001ae8 <CopyDataInit>
  ldr  r2, =_sbss
 8001afa:	4a0b      	ldr	r2, [pc, #44]	; (8001b28 <LoopFillZerobss+0x24>)
  b  LoopFillZerobss
 8001afc:	e002      	b.n	8001b04 <LoopFillZerobss>

08001afe <FillZerobss>:
/* Zero fill the bss segment. */  
FillZerobss:
  movs  r3, #0
 8001afe:	2300      	movs	r3, #0
  str  r3, [r2], #4
 8001b00:	f842 3b04 	str.w	r3, [r2], #4

08001b04 <LoopFillZerobss>:
    
LoopFillZerobss:
  ldr  r3, = _ebss
 8001b04:	4b09      	ldr	r3, [pc, #36]	; (8001b2c <LoopFillZerobss+0x28>)
  cmp  r2, r3
 8001b06:	429a      	cmp	r2, r3
  bcc  FillZerobss
 8001b08:	d3f9      	bcc.n	8001afe <FillZerobss>

/* Call the clock system intitialization function.*/
  bl  SystemInit   
 8001b0a:	f7ff ffc3 	bl	8001a94 <SystemInit>
/* Call static constructors */
    bl __libc_init_array
 8001b0e:	f000 f811 	bl	8001b34 <__libc_init_array>
/* Call the application's entry point.*/
  bl  main
 8001b12:	f7ff fbbf 	bl	8001294 <main>
  bx  lr    
 8001b16:	4770      	bx	lr
  ldr   sp, =_estack      /* set stack pointer */
 8001b18:	20080000 	.word	0x20080000
  ldr  r3, =_sidata
 8001b1c:	08001c10 	.word	0x08001c10
  ldr  r0, =_sdata
 8001b20:	20000000 	.word	0x20000000
  ldr  r3, =_edata
 8001b24:	20000004 	.word	0x20000004
  ldr  r2, =_sbss
 8001b28:	20000004 	.word	0x20000004
  ldr  r3, = _ebss
 8001b2c:	200000d8 	.word	0x200000d8

08001b30 <ADC_IRQHandler>:
 * @retval None       
*/
    .section  .text.Default_Handler,"ax",%progbits
Default_Handler:
Infinite_Loop:
  b  Infinite_Loop
 8001b30:	e7fe      	b.n	8001b30 <ADC_IRQHandler>
	...

08001b34 <__libc_init_array>:
 8001b34:	b570      	push	{r4, r5, r6, lr}
 8001b36:	4e0d      	ldr	r6, [pc, #52]	; (8001b6c <__libc_init_array+0x38>)
 8001b38:	4c0d      	ldr	r4, [pc, #52]	; (8001b70 <__libc_init_array+0x3c>)
 8001b3a:	1ba4      	subs	r4, r4, r6
 8001b3c:	10a4      	asrs	r4, r4, #2
 8001b3e:	2500      	movs	r5, #0
 8001b40:	42a5      	cmp	r5, r4
 8001b42:	d109      	bne.n	8001b58 <__libc_init_array+0x24>
 8001b44:	4e0b      	ldr	r6, [pc, #44]	; (8001b74 <__libc_init_array+0x40>)
 8001b46:	4c0c      	ldr	r4, [pc, #48]	; (8001b78 <__libc_init_array+0x44>)
 8001b48:	f000 f818 	bl	8001b7c <_init>
 8001b4c:	1ba4      	subs	r4, r4, r6
 8001b4e:	10a4      	asrs	r4, r4, #2
 8001b50:	2500      	movs	r5, #0
 8001b52:	42a5      	cmp	r5, r4
 8001b54:	d105      	bne.n	8001b62 <__libc_init_array+0x2e>
 8001b56:	bd70      	pop	{r4, r5, r6, pc}
 8001b58:	f856 3025 	ldr.w	r3, [r6, r5, lsl #2]
 8001b5c:	4798      	blx	r3
 8001b5e:	3501      	adds	r5, #1
 8001b60:	e7ee      	b.n	8001b40 <__libc_init_array+0xc>
 8001b62:	f856 3025 	ldr.w	r3, [r6, r5, lsl #2]
 8001b66:	4798      	blx	r3
 8001b68:	3501      	adds	r5, #1
 8001b6a:	e7f2      	b.n	8001b52 <__libc_init_array+0x1e>
 8001b6c:	08001c08 	.word	0x08001c08
 8001b70:	08001c08 	.word	0x08001c08
 8001b74:	08001c08 	.word	0x08001c08
 8001b78:	08001c0c 	.word	0x08001c0c

08001b7c <_init>:
 8001b7c:	b5f8      	push	{r3, r4, r5, r6, r7, lr}
 8001b7e:	bf00      	nop
 8001b80:	bcf8      	pop	{r3, r4, r5, r6, r7}
 8001b82:	bc08      	pop	{r3}
 8001b84:	469e      	mov	lr, r3
 8001b86:	4770      	bx	lr

08001b88 <_fini>:
 8001b88:	b5f8      	push	{r3, r4, r5, r6, r7, lr}
 8001b8a:	bf00      	nop
 8001b8c:	bcf8      	pop	{r3, r4, r5, r6, r7}
 8001b8e:	bc08      	pop	{r3}
 8001b90:	469e      	mov	lr, r3
 8001b92:	4770      	bx	lr
